((lp0
(S'E'
p1
S'R'
p2
S'G'
p3
tp4
a(S'Y'
p5
S'M'
p6
S'F'
p7
tp8
a(S'H'
p9
S'L'
p10
S'D'
p11
tp12
a(S'A'
p13
g7
g1
tp14
a(S'P'
p15
S'Q'
p16
g10
tp17
a(g13
S'T'
p18
g13
tp19
a(g3
S'S'
p20
S'K'
p21
tp22
a(g5
g5
g3
tp23
a(g16
g18
g13
tp24
a(S'V'
p25
g10
g25
tp26
a(S'N'
p27
g1
g25
tp28
a(g15
g27
g15
tp29
a(g15
g27
g1
tp30
a(g5
g3
g11
tp31
a(g9
g20
g9
tp32
a(g15
g25
g7
tp33
a(g25
S'I'
p34
g25
tp35
a(g9
S'C'
p36
g36
tp37
a(g3
g34
g3
tp38
a(g5
g15
g15
tp39
a(g1
g27
g13
tp40
a(S'-'
p41
g27
g41
tp42
a(g41
g3
g11
tp43
a(g41
g16
g21
tp44
a(g1
g36
g36
tp45
a(g16
g7
g5
tp46
a(g36
g36
g36
tp47
a(g20
g10
g20
tp48
a(g20
g13
g13
tp49
a(g34
S'W'
p50
g50
tp51
a(g5
g10
g10
tp52
a(g34
g21
g9
tp53
a(g5
g20
g20
tp54
a(g5
g27
g2
tp55
a(g3
g3
g3
tp56
a(g13
g18
g18
tp57
a(g10
g27
g15
tp58
a(g50
g13
g3
tp59
a(g1
g1
g1
tp60
a(g16
g21
g21
tp61
a(g1
g10
g34
tp62
a(g18
g13
g3
tp63
a(g13
g13
g13
tp64
a(g2
g27
g16
tp65
a(g3
g34
g25
tp66
a(g7
g10
g36
tp67
a(g16
g16
g16
tp68
a(g50
g50
g50
tp69
a(g7
g34
g34
tp70
a(g13
g18
g13
tp71
a(g25
g7
g7
tp72
a(g7
g13
g20
tp73
a(g10
g10
g34
tp74
a(g20
g20
g13
tp75
a(g13
g13
g34
tp76
a(g10
g10
g13
tp77
a(g7
g36
g10
tp78
a(g10
g10
g10
tp79
a(g13
g6
g18
tp80
a(g7
g7
g7
tp81
a(g5
g5
g5
tp82
a(g3
g3
g3
tp83
a(g50
g5
g7
tp84
a(g9
g16
g20
tp85
a(g13
g18
g13
tp86
a(g5
g50
g50
tp87
a(g21
g21
g21
tp88
a(g13
g20
g13
tp89
a(g20
g18
g18
tp90
a(g25
g36
g36
tp91
a(g3
g3
g3
tp92
a(g50
g50
g50
tp93
a(g1
g1
g1
tp94
a(g1
g1
g1
tp95
a(g25
g34
g25
tp96
a(g5
g5
g5
tp97
a(g25
g25
g25
tp98
a(g36
g13
g36
tp99
a(g20
g18
g36
tp100
a(g25
g34
g25
tp101
a(g1
g1
g1
tp102
a(g10
g6
g25
tp103
a(g34
g34
g10
tp104
a(g21
g21
g7
tp105
a(g25
g7
g25
tp106
a(g34
g34
g18
tp107
a(g10
g34
g10
tp108
a(g1
g1
g1
tp109
a(g34
g5
g34
tp110
a(g5
g7
g7
tp111
a(g7
g9
g21
tp112
a(g1
g1
g1
tp113
a(g7
g7
g7
tp114
a(g18
g11
g20
tp115
a(g20
g1
g20
tp116
a(g15
g15
g15
tp117
a(g13
g13
g13
tp118
a(g6
g25
g18
tp119
a(g10
g34
g25
tp120
a(g7
g5
g5
tp121
a(g10
g20
g10
tp122
a(g5
g20
g20
tp123
a(g3
g27
g18
tp124
a(g3
g3
g3
tp125
a(g27
g27
g27
tp126
a(g34
g21
g9
tp127
a(g18
g18
g13
tp128
a(g15
g25
g5
tp129
a(g50
g50
g36
tp130
a(g10
g10
g10
tp131
a(g2
g2
g2
tp132
a(g5
g5
g5
tp133
a(g13
g13
g7
tp134
a(g1
g1
g1
tp135
a(g50
g50
g50
tp136
a(g10
g10
g10
tp137
a(g10
g10
g10
tp138
a(g18
g18
g20
tp139
a(g36
g36
g36
tp140
a(g15
g15
g15
tp141
a(g25
g25
g25
tp142
a(g34
g34
g34
tp143
a(g10
g10
g10
tp144
a(g34
g34
g34
tp145
a(g9
g9
g2
tp146
a(g10
g10
g10
tp147
a(g20
g20
g20
tp148
a(g27
g27
g27
tp149
a(g34
g10
g10
tp150
a(g18
g18
g20
tp151
a(g3
g3
g3
tp152
a(g10
g10
g10
tp153
a(g20
g13
g21
tp154
a(g1
g27
g27
tp155
a(g13
g11
g11
tp156
a(g5
g5
g5
tp157
a(g27
g27
g20
tp158
a(g21
g21
g21
tp159
a(g2
g2
g2
tp160
a(g18
g18
g18
tp161
a(g6
g6
g6
tp162
a(g13
g3
g3
tp163
a(g10
g10
g10
tp164
a(g10
g10
g34
tp165
a(g25
g25
g25
tp166
a(g20
g20
g20
tp167
a(g11
g11
g36
tp168
a(g10
g34
g25
tp169
a(g3
g3
g3
tp170
a(g18
g18
g6
tp171
a(g34
g34
g34
tp172
a(g36
g25
g25
tp173
a(g6
g50
g7
tp174
a(g3
g3
g3
tp175
a(g25
g18
g6
tp176
a(g18
g18
g13
tp177
a(g13
g13
g13
tp178
a(g13
g13
g3
tp179
a(g10
g10
g10
tp180
a(g13
g20
g13
tp181
a(g18
g21
g18
tp182
a(g3
g3
g11
tp183
a(g50
g5
g50
tp184
a(g25
g25
g10
tp185
a(g21
g2
g21
tp186
a(g50
g25
g50
tp187
a(g10
g34
g10
tp188
a(g7
g7
g10
tp189
a(g5
g7
g5
tp190
a(g36
g10
g34
tp191
a(g34
g6
g25
tp192
a(g3
g3
g20
tp193
a(g10
g10
g36
tp194
a(g25
g36
g34
tp195
a(g5
g5
g5
tp196
a(g3
g3
g3
tp197
a(g18
g34
g3
tp198
a(g16
g5
g5
tp199
a(g18
g18
g6
tp200
a(g7
g7
g5
tp201
a(g5
g7
g7
tp202
a(g27
g27
g16
tp203
a(g13
g13
g13
tp204
a(g3
g13
g13
tp205
a(g34
g21
g21
tp206
a(g34
g25
g36
tp207
a(g5
g5
g5
tp208
a(g25
g34
g25
tp209
a(g1
g1
g1
tp210
a(g20
g13
g13
tp211
a(g5
g5
g27
tp212
a(g5
g9
g9
tp213
a(g34
g18
g20
tp214
a(g6
g25
g25
tp215
a(g15
g15
g15
tp216
a(g13
g21
g21
tp217
a(g3
g3
g3
tp218
a(g3
g2
g9
tp219
a(g36
g36
g36
tp220
a(g21
g2
g2
tp221
a(g21
g16
g6
tp222
a(g10
g25
g25
tp223
a(g25
g25
g25
tp224
a(g10
g18
g21
tp225
a(g13
g3
g10
tp226
a(g6
g6
g6
tp227
a(g18
g13
g13
tp228
a(g13
g50
g5
tp229
a(g25
g10
g13
tp230
a(g5
g7
g5
tp231
a(g5
g7
g7
tp232
a(g20
g25
g13
tp233
a(g20
g20
g20
tp234
a(g50
g50
g50
tp235
a(g10
g3
g3
tp236
a(g6
g6
g20
tp237
a(g7
g7
g5
tp238
a(g15
g15
g15
tp239
a(g3
g34
g34
tp240
a(g10
g10
g10
tp241
a(g7
g7
g50
tp242
a(g34
g34
g13
tp243
a(g7
g10
g25
tp244
a(g3
g3
g3
tp245
a(g15
g15
g15
tp246
a(g1
g1
g1
tp247
a(g3
g3
g3
tp248
a(g6
g7
g10
tp249
a(g9
g3
g10
tp250
a(g18
g25
g21
tp251
a(g10
g10
g10
tp252
a(g20
g20
g20
tp253
a(g25
g25
g15
tp254
a(g13
g5
g5
tp255
a(g3
g3
g13
tp256
a(g20
g20
g27
tp257
a(g18
g18
g20
tp258
a(g34
g25
g34
tp259
a(g3
g3
g3
tp260
a(g9
g9
g9
tp261
a(g18
g18
g20
tp262
a(g34
g34
g34
tp263
a(g13
g34
g36
tp264
a(g11
g11
g11
tp265
a(g10
g10
g34
tp266
a(g10
g6
g34
tp267
a(g20
g20
g13
tp268
a(g21
g21
g21
tp269
a(g27
g27
g1
tp270
a(g34
g36
g7
tp271
a(g50
g50
g50
tp272
a(g3
g3
g18
tp273
a(g10
g10
g7
tp274
a(g10
g10
g10
tp275
a(g3
g3
g13
tp276
a(g9
g9
g9
tp277
a(g7
g5
g9
tp278
a(g10
g10
g10
tp279
a(g2
g2
g2
tp280
a(g34
g25
g34
tp281
a(g21
g10
g21
tp282
a(g34
g34
g34
tp283
a(g9
g9
g9
tp284
a(g1
g1
g1
tp285
a(g9
g9
g9
tp286
a(g34
g34
g34
tp287
a(g34
g10
g10
tp288
a(g6
g34
g34
tp289
a(g5
g9
g9
tp290
a(g3
g3
g3
tp291
a(g11
g11
g11
tp292
a(g34
g34
g34
tp293
a(g2
g2
g2
tp294
a(g2
g21
g21
tp295
a(g15
g18
g18
tp296
a(g25
g18
g18
tp297
a(g20
g21
g21
tp298
a(g20
g10
g6
tp299
a(g16
g27
g1
tp300
a(g7
g34
g34
tp301
a(g10
g3
g3
tp302
a(g3
g3
g3
tp303
a(g2
g18
g1
tp304
a(g21
g1
g1
tp305
a(g25
g34
g25
tp306
a(g11
g1
g1
tp307
a(g25
g25
g25
tp308
a(g10
g1
g1
tp309
a(g13
g18
g1
tp310
a(g7
g10
g7
tp311
a(g25
g25
g25
tp312
a(g18
g1
g1
tp313
a(g1
g11
g1
tp314
a(g1
g1
g1
tp315
a(lp316
(I0
I1
tp317
a(I0
I2
tp318
a(I0
I5
tp319
a(I1
I2
tp320
a(I1
I3
tp321
a(I1
I5
tp322
a(I1
I23
tp323
a(I2
I3
tp324
a(I2
I23
tp325
a(I3
I4
tp326
a(I3
I5
tp327
a(I3
I23
tp328
a(I3
I24
tp329
a(I3
I29
tp330
a(I3
I30
tp331
a(I3
I99
tp332
a(I4
I5
tp333
a(I4
I6
tp334
a(I4
I18
tp335
a(I4
I19
tp336
a(I4
I21
tp337
a(I4
I23
tp338
a(I4
I24
tp339
a(I4
I25
tp340
a(I4
I30
tp341
a(I5
I6
tp342
a(I5
I7
tp343
a(I5
I30
tp344
a(I6
I7
tp345
a(I6
I18
tp346
a(I6
I19
tp347
a(I7
I8
tp348
a(I7
I9
tp349
a(I7
I16
tp350
a(I7
I17
tp351
a(I7
I18
tp352
a(I7
I25
tp353
a(I7
I27
tp354
a(I7
I30
tp355
a(I8
I9
tp356
a(I8
I10
tp357
a(I8
I15
tp358
a(I8
I16
tp359
a(I8
I17
tp360
a(I9
I10
tp361
a(I9
I13
tp362
a(I9
I15
tp363
a(I9
I16
tp364
a(I10
I11
tp365
a(I10
I12
tp366
a(I10
I13
tp367
a(I10
I14
tp368
a(I10
I15
tp369
a(I10
I17
tp370
a(I11
I12
tp371
a(I11
I13
tp372
a(I11
I14
tp373
a(I11
I15
tp374
a(I12
I13
tp375
a(I12
I14
tp376
a(I13
I14
tp377
a(I13
I15
tp378
a(I14
I15
tp379
a(I14
I16
tp380
a(I15
I16
tp381
a(I15
I17
tp382
a(I16
I17
tp383
a(I16
I18
tp384
a(I16
I25
tp385
a(I16
I27
tp386
a(I17
I18
tp387
a(I18
I19
tp388
a(I18
I20
tp389
a(I18
I25
tp390
a(I19
I20
tp391
a(I19
I21
tp392
a(I20
I21
tp393
a(I20
I22
tp394
a(I21
I22
tp395
a(I21
I23
tp396
a(I22
I23
tp397
a(I22
I24
tp398
a(I23
I24
tp399
a(I23
I25
tp400
a(I24
I25
tp401
a(I24
I26
tp402
a(I24
I29
tp403
a(I25
I26
tp404
a(I25
I27
tp405
a(I25
I29
tp406
a(I25
I30
tp407
a(I26
I27
tp408
a(I26
I28
tp409
a(I26
I29
tp410
a(I26
I30
tp411
a(I26
I103
tp412
a(I27
I28
tp413
a(I27
I29
tp414
a(I27
I30
tp415
a(I27
I31
tp416
a(I28
I29
tp417
a(I28
I30
tp418
a(I28
I31
tp419
a(I28
I103
tp420
a(I28
I105
tp421
a(I29
I30
tp422
a(I29
I31
tp423
a(I29
I99
tp424
a(I29
I100
tp425
a(I29
I101
tp426
a(I29
I103
tp427
a(I29
I104
tp428
a(I29
I105
tp429
a(I30
I31
tp430
a(I30
I32
tp431
a(I31
I32
tp432
a(I31
I33
tp433
a(I31
I105
tp434
a(I32
I33
tp435
a(I32
I34
tp436
a(I32
I105
tp437
a(I33
I34
tp438
a(I33
I92
tp439
a(I33
I105
tp440
a(I33
I231
tp441
a(I33
I232
tp442
a(I33
I233
tp443
a(I34
I35
tp444
a(I34
I36
tp445
a(I34
I38
tp446
a(I34
I231
tp447
a(I34
I233
tp448
a(I35
I36
tp449
a(I35
I37
tp450
a(I35
I38
tp451
a(I35
I39
tp452
a(I35
I233
tp453
a(I36
I37
tp454
a(I36
I38
tp455
a(I36
I39
tp456
a(I36
I40
tp457
a(I37
I38
tp458
a(I37
I39
tp459
a(I37
I40
tp460
a(I37
I41
tp461
a(I38
I39
tp462
a(I38
I40
tp463
a(I38
I41
tp464
a(I38
I42
tp465
a(I38
I231
tp466
a(I38
I233
tp467
a(I38
I234
tp468
a(I38
I237
tp469
a(I39
I40
tp470
a(I39
I41
tp471
a(I39
I42
tp472
a(I39
I43
tp473
a(I39
I91
tp474
a(I39
I92
tp475
a(I39
I233
tp476
a(I40
I41
tp477
a(I40
I42
tp478
a(I40
I43
tp479
a(I40
I44
tp480
a(I41
I42
tp481
a(I41
I43
tp482
a(I41
I44
tp483
a(I41
I45
tp484
a(I41
I237
tp485
a(I42
I43
tp486
a(I42
I44
tp487
a(I42
I45
tp488
a(I42
I46
tp489
a(I42
I233
tp490
a(I42
I236
tp491
a(I42
I237
tp492
a(I43
I44
tp493
a(I43
I45
tp494
a(I43
I46
tp495
a(I43
I47
tp496
a(I44
I45
tp497
a(I44
I46
tp498
a(I44
I47
tp499
a(I44
I48
tp500
a(I45
I46
tp501
a(I45
I47
tp502
a(I45
I48
tp503
a(I45
I49
tp504
a(I45
I237
tp505
a(I45
I240
tp506
a(I45
I241
tp507
a(I45
I244
tp508
a(I46
I47
tp509
a(I46
I48
tp510
a(I46
I49
tp511
a(I46
I50
tp512
a(I46
I84
tp513
a(I46
I87
tp514
a(I46
I91
tp515
a(I46
I236
tp516
a(I46
I240
tp517
a(I47
I48
tp518
a(I47
I49
tp519
a(I47
I50
tp520
a(I47
I51
tp521
a(I47
I84
tp522
a(I47
I88
tp523
a(I48
I49
tp524
a(I48
I50
tp525
a(I48
I51
tp526
a(I48
I52
tp527
a(I48
I244
tp528
a(I49
I50
tp529
a(I49
I51
tp530
a(I49
I52
tp531
a(I49
I53
tp532
a(I49
I80
tp533
a(I49
I240
tp534
a(I49
I244
tp535
a(I49
I248
tp536
a(I50
I51
tp537
a(I50
I52
tp538
a(I50
I53
tp539
a(I50
I54
tp540
a(I50
I81
tp541
a(I50
I84
tp542
a(I50
I85
tp543
a(I51
I52
tp544
a(I51
I53
tp545
a(I51
I54
tp546
a(I51
I55
tp547
a(I52
I53
tp548
a(I52
I54
tp549
a(I52
I55
tp550
a(I52
I56
tp551
a(I52
I57
tp552
a(I52
I244
tp553
a(I52
I248
tp554
a(I53
I54
tp555
a(I53
I55
tp556
a(I53
I56
tp557
a(I53
I57
tp558
a(I53
I77
tp559
a(I53
I80
tp560
a(I53
I81
tp561
a(I53
I248
tp562
a(I54
I55
tp563
a(I54
I56
tp564
a(I54
I57
tp565
a(I54
I58
tp566
a(I54
I81
tp567
a(I55
I56
tp568
a(I55
I57
tp569
a(I55
I58
tp570
a(I55
I59
tp571
a(I56
I57
tp572
a(I56
I58
tp573
a(I56
I59
tp574
a(I56
I60
tp575
a(I56
I248
tp576
a(I56
I252
tp577
a(I57
I58
tp578
a(I57
I59
tp579
a(I57
I60
tp580
a(I57
I74
tp581
a(I57
I77
tp582
a(I57
I78
tp583
a(I57
I81
tp584
a(I58
I59
tp585
a(I58
I60
tp586
a(I59
I60
tp587
a(I59
I252
tp588
a(I59
I255
tp589
a(I60
I73
tp590
a(I60
I74
tp591
a(I60
I248
tp592
a(I60
I251
tp593
a(I60
I252
tp594
a(I60
I255
tp595
a(I69
I70
tp596
a(I69
I71
tp597
a(I69
I72
tp598
a(I69
I258
tp599
a(I70
I71
tp600
a(I70
I72
tp601
a(I70
I73
tp602
a(I70
I74
tp603
a(I70
I258
tp604
a(I71
I72
tp605
a(I71
I73
tp606
a(I71
I74
tp607
a(I71
I75
tp608
a(I71
I120
tp609
a(I71
I123
tp610
a(I72
I73
tp611
a(I72
I74
tp612
a(I72
I75
tp613
a(I72
I76
tp614
a(I72
I120
tp615
a(I72
I123
tp616
a(I72
I124
tp617
a(I72
I135
tp618
a(I72
I258
tp619
a(I73
I74
tp620
a(I73
I75
tp621
a(I73
I76
tp622
a(I73
I77
tp623
a(I73
I121
tp624
a(I73
I124
tp625
a(I73
I247
tp626
a(I73
I250
tp627
a(I73
I251
tp628
a(I74
I75
tp629
a(I74
I76
tp630
a(I74
I77
tp631
a(I74
I78
tp632
a(I75
I76
tp633
a(I75
I77
tp634
a(I75
I78
tp635
a(I75
I79
tp636
a(I75
I116
tp637
a(I75
I120
tp638
a(I76
I77
tp639
a(I76
I78
tp640
a(I76
I79
tp641
a(I76
I80
tp642
a(I76
I117
tp643
a(I76
I120
tp644
a(I76
I121
tp645
a(I76
I247
tp646
a(I77
I78
tp647
a(I77
I79
tp648
a(I77
I80
tp649
a(I77
I81
tp650
a(I78
I79
tp651
a(I78
I80
tp652
a(I78
I81
tp653
a(I78
I82
tp654
a(I79
I80
tp655
a(I79
I81
tp656
a(I79
I82
tp657
a(I79
I83
tp658
a(I79
I113
tp659
a(I79
I116
tp660
a(I79
I117
tp661
a(I80
I81
tp662
a(I80
I82
tp663
a(I80
I83
tp664
a(I80
I84
tp665
a(I80
I113
tp666
a(I80
I243
tp667
a(I80
I247
tp668
a(I80
I248
tp669
a(I81
I82
tp670
a(I81
I83
tp671
a(I81
I84
tp672
a(I81
I85
tp673
a(I82
I83
tp674
a(I82
I84
tp675
a(I82
I85
tp676
a(I82
I86
tp677
a(I83
I84
tp678
a(I83
I85
tp679
a(I83
I86
tp680
a(I83
I87
tp681
a(I83
I109
tp682
a(I83
I110
tp683
a(I83
I113
tp684
a(I83
I243
tp685
a(I84
I85
tp686
a(I84
I86
tp687
a(I84
I87
tp688
a(I84
I88
tp689
a(I85
I86
tp690
a(I85
I87
tp691
a(I85
I88
tp692
a(I85
I89
tp693
a(I86
I87
tp694
a(I86
I88
tp695
a(I86
I89
tp696
a(I86
I90
tp697
a(I86
I91
tp698
a(I86
I96
tp699
a(I86
I109
tp700
a(I87
I88
tp701
a(I87
I89
tp702
a(I87
I90
tp703
a(I87
I91
tp704
a(I87
I109
tp705
a(I88
I89
tp706
a(I88
I90
tp707
a(I89
I90
tp708
a(I89
I91
tp709
a(I89
I93
tp710
a(I90
I91
tp711
a(I90
I92
tp712
a(I90
I93
tp713
a(I90
I96
tp714
a(I91
I92
tp715
a(I91
I93
tp716
a(I91
I96
tp717
a(I91
I97
tp718
a(I91
I236
tp719
a(I92
I93
tp720
a(I92
I94
tp721
a(I92
I97
tp722
a(I92
I99
tp723
a(I92
I232
tp724
a(I92
I233
tp725
a(I93
I94
tp726
a(I93
I95
tp727
a(I93
I96
tp728
a(I93
I97
tp729
a(I94
I95
tp730
a(I94
I96
tp731
a(I94
I97
tp732
a(I94
I98
tp733
a(I94
I99
tp734
a(I95
I96
tp735
a(I95
I97
tp736
a(I95
I98
tp737
a(I95
I108
tp738
a(I95
I109
tp739
a(I96
I97
tp740
a(I96
I98
tp741
a(I96
I106
tp742
a(I96
I107
tp743
a(I96
I108
tp744
a(I96
I109
tp745
a(I97
I98
tp746
a(I97
I99
tp747
a(I97
I105
tp748
a(I97
I106
tp749
a(I97
I107
tp750
a(I97
I108
tp751
a(I98
I99
tp752
a(I98
I100
tp753
a(I98
I104
tp754
a(I98
I105
tp755
a(I98
I106
tp756
a(I98
I108
tp757
a(I98
I158
tp758
a(I99
I100
tp759
a(I99
I101
tp760
a(I99
I104
tp761
a(I99
I105
tp762
a(I100
I101
tp763
a(I100
I102
tp764
a(I100
I103
tp765
a(I100
I104
tp766
a(I100
I158
tp767
a(I101
I102
tp768
a(I101
I103
tp769
a(I102
I103
tp770
a(I102
I104
tp771
a(I102
I158
tp772
a(I102
I159
tp773
a(I102
I160
tp774
a(I103
I104
tp775
a(I103
I105
tp776
a(I104
I105
tp777
a(I104
I106
tp778
a(I104
I157
tp779
a(I104
I158
tp780
a(I104
I159
tp781
a(I104
I160
tp782
a(I104
I164
tp783
a(I105
I106
tp784
a(I105
I107
tp785
a(I106
I107
tp786
a(I106
I108
tp787
a(I106
I111
tp788
a(I106
I154
tp789
a(I106
I157
tp790
a(I106
I158
tp791
a(I107
I108
tp792
a(I107
I109
tp793
a(I107
I110
tp794
a(I107
I111
tp795
a(I108
I109
tp796
a(I108
I110
tp797
a(I108
I111
tp798
a(I108
I112
tp799
a(I108
I113
tp800
a(I108
I115
tp801
a(I108
I154
tp802
a(I109
I110
tp803
a(I109
I111
tp804
a(I109
I112
tp805
a(I109
I113
tp806
a(I110
I111
tp807
a(I110
I112
tp808
a(I110
I113
tp809
a(I110
I114
tp810
a(I110
I225
tp811
a(I110
I235
tp812
a(I110
I236
tp813
a(I110
I239
tp814
a(I111
I112
tp815
a(I111
I113
tp816
a(I111
I114
tp817
a(I111
I115
tp818
a(I111
I150
tp819
a(I111
I154
tp820
a(I111
I157
tp821
a(I111
I220
tp822
a(I111
I225
tp823
a(I112
I113
tp824
a(I112
I114
tp825
a(I112
I115
tp826
a(I112
I116
tp827
a(I113
I114
tp828
a(I113
I115
tp829
a(I113
I116
tp830
a(I113
I117
tp831
a(I113
I118
tp832
a(I113
I243
tp833
a(I113
I247
tp834
a(I114
I115
tp835
a(I114
I116
tp836
a(I114
I117
tp837
a(I114
I118
tp838
a(I114
I119
tp839
a(I114
I150
tp840
a(I114
I216
tp841
a(I114
I239
tp842
a(I114
I243
tp843
a(I114
I247
tp844
a(I115
I116
tp845
a(I115
I117
tp846
a(I115
I119
tp847
a(I115
I147
tp848
a(I115
I150
tp849
a(I116
I117
tp850
a(I116
I118
tp851
a(I116
I119
tp852
a(I116
I120
tp853
a(I117
I118
tp854
a(I117
I119
tp855
a(I117
I120
tp856
a(I117
I121
tp857
a(I117
I247
tp858
a(I118
I119
tp859
a(I118
I120
tp860
a(I118
I121
tp861
a(I118
I122
tp862
a(I118
I146
tp863
a(I118
I150
tp864
a(I118
I213
tp865
a(I119
I120
tp866
a(I119
I121
tp867
a(I119
I122
tp868
a(I119
I123
tp869
a(I119
I143
tp870
a(I119
I146
tp871
a(I119
I147
tp872
a(I120
I121
tp873
a(I120
I122
tp874
a(I120
I123
tp875
a(I120
I124
tp876
a(I121
I122
tp877
a(I121
I123
tp878
a(I121
I124
tp879
a(I121
I125
tp880
a(I121
I209
tp881
a(I121
I213
tp882
a(I121
I246
tp883
a(I121
I247
tp884
a(I121
I250
tp885
a(I122
I123
tp886
a(I122
I124
tp887
a(I122
I125
tp888
a(I122
I126
tp889
a(I122
I142
tp890
a(I122
I143
tp891
a(I122
I146
tp892
a(I122
I178
tp893
a(I122
I209
tp894
a(I122
I213
tp895
a(I123
I124
tp896
a(I123
I125
tp897
a(I123
I126
tp898
a(I123
I127
tp899
a(I123
I135
tp900
a(I123
I143
tp901
a(I124
I125
tp902
a(I124
I126
tp903
a(I124
I127
tp904
a(I124
I128
tp905
a(I124
I250
tp906
a(I124
I251
tp907
a(I124
I254
tp908
a(I124
I255
tp909
a(I124
I258
tp910
a(I125
I126
tp911
a(I125
I127
tp912
a(I125
I128
tp913
a(I125
I142
tp914
a(I125
I182
tp915
a(I125
I185
tp916
a(I125
I186
tp917
a(I125
I209
tp918
a(I125
I250
tp919
a(I126
I127
tp920
a(I126
I128
tp921
a(I126
I134
tp922
a(I126
I135
tp923
a(I126
I139
tp924
a(I126
I142
tp925
a(I126
I185
tp926
a(I127
I128
tp927
a(I127
I129
tp928
a(I127
I130
tp929
a(I127
I131
tp930
a(I127
I132
tp931
a(I127
I134
tp932
a(I127
I135
tp933
a(I127
I258
tp934
a(I128
I129
tp935
a(I128
I130
tp936
a(I128
I186
tp937
a(I128
I189
tp938
a(I128
I205
tp939
a(I128
I250
tp940
a(I128
I254
tp941
a(I128
I257
tp942
a(I128
I258
tp943
a(I129
I130
tp944
a(I129
I131
tp945
a(I129
I132
tp946
a(I129
I192
tp947
a(I129
I193
tp948
a(I129
I258
tp949
a(I129
I261
tp950
a(I130
I131
tp951
a(I130
I132
tp952
a(I130
I258
tp953
a(I131
I132
tp954
a(I131
I133
tp955
a(I131
I261
tp956
a(I131
I265
tp957
a(I131
I270
tp958
a(I131
I272
tp959
a(I131
I289
tp960
a(I132
I133
tp961
a(I132
I134
tp962
a(I133
I134
tp963
a(I133
I135
tp964
a(I134
I135
tp965
a(I134
I136
tp966
a(I134
I139
tp967
a(I135
I136
tp968
a(I135
I139
tp969
a(I136
I137
tp970
a(I136
I138
tp971
a(I136
I139
tp972
a(I136
I140
tp973
a(I137
I138
tp974
a(I137
I139
tp975
a(I137
I140
tp976
a(I137
I141
tp977
a(I138
I139
tp978
a(I138
I140
tp979
a(I138
I141
tp980
a(I138
I142
tp981
a(I138
I181
tp982
a(I138
I184
tp983
a(I138
I185
tp984
a(I138
I188
tp985
a(I139
I140
tp986
a(I139
I141
tp987
a(I139
I142
tp988
a(I139
I143
tp989
a(I140
I141
tp990
a(I140
I142
tp991
a(I140
I143
tp992
a(I140
I144
tp993
a(I141
I142
tp994
a(I141
I143
tp995
a(I141
I144
tp996
a(I141
I145
tp997
a(I141
I177
tp998
a(I141
I181
tp999
a(I142
I143
tp1000
a(I142
I144
tp1001
a(I142
I145
tp1002
a(I142
I146
tp1003
a(I142
I178
tp1004
a(I142
I181
tp1005
a(I142
I182
tp1006
a(I142
I185
tp1007
a(I143
I144
tp1008
a(I143
I145
tp1009
a(I143
I146
tp1010
a(I143
I147
tp1011
a(I144
I145
tp1012
a(I144
I146
tp1013
a(I144
I147
tp1014
a(I144
I148
tp1015
a(I144
I174
tp1016
a(I145
I146
tp1017
a(I145
I147
tp1018
a(I145
I148
tp1019
a(I145
I149
tp1020
a(I145
I174
tp1021
a(I145
I177
tp1022
a(I145
I178
tp1023
a(I146
I147
tp1024
a(I146
I148
tp1025
a(I146
I149
tp1026
a(I146
I150
tp1027
a(I146
I178
tp1028
a(I146
I213
tp1029
a(I147
I148
tp1030
a(I147
I149
tp1031
a(I147
I150
tp1032
a(I147
I151
tp1033
a(I148
I149
tp1034
a(I148
I150
tp1035
a(I148
I151
tp1036
a(I148
I152
tp1037
a(I148
I174
tp1038
a(I149
I150
tp1039
a(I149
I151
tp1040
a(I149
I152
tp1041
a(I149
I153
tp1042
a(I149
I171
tp1043
a(I149
I174
tp1044
a(I149
I175
tp1045
a(I149
I178
tp1046
a(I150
I151
tp1047
a(I150
I152
tp1048
a(I150
I153
tp1049
a(I150
I154
tp1050
a(I151
I152
tp1051
a(I151
I153
tp1052
a(I151
I154
tp1053
a(I151
I155
tp1054
a(I152
I153
tp1055
a(I152
I154
tp1056
a(I152
I155
tp1057
a(I152
I156
tp1058
a(I152
I167
tp1059
a(I152
I168
tp1060
a(I152
I170
tp1061
a(I152
I171
tp1062
a(I152
I174
tp1063
a(I153
I154
tp1064
a(I153
I155
tp1065
a(I153
I156
tp1066
a(I153
I157
tp1067
a(I153
I220
tp1068
a(I154
I155
tp1069
a(I154
I156
tp1070
a(I154
I157
tp1071
a(I154
I158
tp1072
a(I155
I156
tp1073
a(I155
I157
tp1074
a(I155
I158
tp1075
a(I155
I159
tp1076
a(I155
I167
tp1077
a(I156
I157
tp1078
a(I156
I158
tp1079
a(I156
I159
tp1080
a(I156
I164
tp1081
a(I156
I167
tp1082
a(I156
I168
tp1083
a(I156
I220
tp1084
a(I157
I158
tp1085
a(I157
I159
tp1086
a(I157
I164
tp1087
a(I157
I220
tp1088
a(I157
I225
tp1089
a(I158
I159
tp1090
a(I159
I160
tp1091
a(I159
I163
tp1092
a(I159
I164
tp1093
a(I159
I167
tp1094
a(I160
I161
tp1095
a(I160
I162
tp1096
a(I160
I163
tp1097
a(I160
I164
tp1098
a(I161
I162
tp1099
a(I161
I163
tp1100
a(I161
I164
tp1101
a(I161
I165
tp1102
a(I162
I163
tp1103
a(I162
I164
tp1104
a(I162
I165
tp1105
a(I162
I166
tp1106
a(I163
I164
tp1107
a(I163
I165
tp1108
a(I163
I166
tp1109
a(I163
I167
tp1110
a(I164
I165
tp1111
a(I164
I166
tp1112
a(I164
I167
tp1113
a(I164
I168
tp1114
a(I164
I224
tp1115
a(I164
I225
tp1116
a(I164
I226
tp1117
a(I165
I166
tp1118
a(I165
I167
tp1119
a(I165
I168
tp1120
a(I165
I169
tp1121
a(I166
I167
tp1122
a(I166
I168
tp1123
a(I166
I169
tp1124
a(I166
I170
tp1125
a(I167
I168
tp1126
a(I167
I169
tp1127
a(I167
I170
tp1128
a(I167
I171
tp1129
a(I168
I169
tp1130
a(I168
I170
tp1131
a(I168
I171
tp1132
a(I168
I172
tp1133
a(I168
I217
tp1134
a(I168
I220
tp1135
a(I168
I221
tp1136
a(I169
I170
tp1137
a(I169
I171
tp1138
a(I169
I172
tp1139
a(I169
I173
tp1140
a(I170
I171
tp1141
a(I170
I172
tp1142
a(I170
I173
tp1143
a(I170
I174
tp1144
a(I171
I172
tp1145
a(I171
I173
tp1146
a(I171
I174
tp1147
a(I171
I175
tp1148
a(I172
I173
tp1149
a(I172
I174
tp1150
a(I172
I175
tp1151
a(I172
I176
tp1152
a(I173
I174
tp1153
a(I173
I175
tp1154
a(I173
I176
tp1155
a(I173
I177
tp1156
a(I174
I175
tp1157
a(I174
I176
tp1158
a(I174
I177
tp1159
a(I174
I178
tp1160
a(I175
I176
tp1161
a(I175
I177
tp1162
a(I175
I178
tp1163
a(I175
I179
tp1164
a(I176
I177
tp1165
a(I176
I178
tp1166
a(I176
I179
tp1167
a(I176
I180
tp1168
a(I177
I178
tp1169
a(I177
I179
tp1170
a(I177
I180
tp1171
a(I177
I181
tp1172
a(I178
I179
tp1173
a(I178
I180
tp1174
a(I178
I181
tp1175
a(I178
I182
tp1176
a(I179
I180
tp1177
a(I179
I181
tp1178
a(I179
I182
tp1179
a(I179
I183
tp1180
a(I179
I210
tp1181
a(I179
I213
tp1182
a(I179
I214
tp1183
a(I180
I181
tp1184
a(I180
I182
tp1185
a(I180
I183
tp1186
a(I180
I184
tp1187
a(I181
I182
tp1188
a(I181
I183
tp1189
a(I181
I184
tp1190
a(I181
I185
tp1191
a(I182
I183
tp1192
a(I182
I184
tp1193
a(I182
I185
tp1194
a(I182
I186
tp1195
a(I182
I209
tp1196
a(I182
I210
tp1197
a(I183
I184
tp1198
a(I183
I185
tp1199
a(I183
I186
tp1200
a(I183
I187
tp1201
a(I183
I210
tp1202
a(I184
I185
tp1203
a(I184
I186
tp1204
a(I184
I187
tp1205
a(I184
I188
tp1206
a(I185
I186
tp1207
a(I185
I187
tp1208
a(I185
I188
tp1209
a(I185
I189
tp1210
a(I186
I187
tp1211
a(I186
I188
tp1212
a(I186
I189
tp1213
a(I186
I190
tp1214
a(I186
I202
tp1215
a(I186
I205
tp1216
a(I186
I206
tp1217
a(I186
I209
tp1218
a(I186
I210
tp1219
a(I186
I250
tp1220
a(I187
I188
tp1221
a(I187
I189
tp1222
a(I187
I190
tp1223
a(I187
I191
tp1224
a(I188
I189
tp1225
a(I188
I190
tp1226
a(I188
I191
tp1227
a(I188
I192
tp1228
a(I188
I277
tp1229
a(I188
I286
tp1230
a(I189
I190
tp1231
a(I189
I191
tp1232
a(I189
I192
tp1233
a(I189
I193
tp1234
a(I189
I202
tp1235
a(I190
I191
tp1236
a(I190
I192
tp1237
a(I190
I193
tp1238
a(I190
I199
tp1239
a(I190
I202
tp1240
a(I190
I203
tp1241
a(I191
I192
tp1242
a(I191
I193
tp1243
a(I191
I199
tp1244
a(I191
I275
tp1245
a(I191
I277
tp1246
a(I191
I286
tp1247
a(I191
I288
tp1248
a(I192
I193
tp1249
a(I192
I194
tp1250
a(I192
I272
tp1251
a(I192
I286
tp1252
a(I192
I287
tp1253
a(I192
I288
tp1254
a(I192
I289
tp1255
a(I193
I194
tp1256
a(I193
I195
tp1257
a(I193
I198
tp1258
a(I193
I199
tp1259
a(I193
I202
tp1260
a(I193
I257
tp1261
a(I193
I261
tp1262
a(I193
I288
tp1263
a(I193
I289
tp1264
a(I194
I195
tp1265
a(I194
I196
tp1266
a(I194
I198
tp1267
a(I194
I199
tp1268
a(I194
I261
tp1269
a(I194
I264
tp1270
a(I194
I289
tp1271
a(I195
I196
tp1272
a(I195
I197
tp1273
a(I195
I199
tp1274
a(I196
I197
tp1275
a(I196
I198
tp1276
a(I196
I199
tp1277
a(I196
I200
tp1278
a(I197
I198
tp1279
a(I197
I199
tp1280
a(I197
I200
tp1281
a(I197
I201
tp1282
a(I197
I256
tp1283
a(I197
I260
tp1284
a(I198
I199
tp1285
a(I198
I200
tp1286
a(I198
I201
tp1287
a(I198
I202
tp1288
a(I198
I257
tp1289
a(I198
I260
tp1290
a(I198
I261
tp1291
a(I199
I200
tp1292
a(I199
I201
tp1293
a(I199
I202
tp1294
a(I199
I203
tp1295
a(I199
I288
tp1296
a(I200
I201
tp1297
a(I200
I202
tp1298
a(I200
I203
tp1299
a(I200
I204
tp1300
a(I201
I202
tp1301
a(I201
I203
tp1302
a(I201
I204
tp1303
a(I201
I205
tp1304
a(I201
I253
tp1305
a(I201
I256
tp1306
a(I201
I257
tp1307
a(I201
I260
tp1308
a(I202
I203
tp1309
a(I202
I204
tp1310
a(I202
I205
tp1311
a(I202
I206
tp1312
a(I202
I257
tp1313
a(I203
I204
tp1314
a(I203
I205
tp1315
a(I203
I206
tp1316
a(I203
I207
tp1317
a(I204
I205
tp1318
a(I204
I206
tp1319
a(I204
I207
tp1320
a(I204
I208
tp1321
a(I204
I253
tp1322
a(I205
I206
tp1323
a(I205
I207
tp1324
a(I205
I208
tp1325
a(I205
I209
tp1326
a(I205
I250
tp1327
a(I205
I253
tp1328
a(I205
I254
tp1329
a(I205
I257
tp1330
a(I206
I207
tp1331
a(I206
I208
tp1332
a(I206
I209
tp1333
a(I206
I210
tp1334
a(I207
I208
tp1335
a(I207
I209
tp1336
a(I207
I210
tp1337
a(I207
I211
tp1338
a(I207
I212
tp1339
a(I208
I209
tp1340
a(I208
I210
tp1341
a(I208
I211
tp1342
a(I208
I212
tp1343
a(I208
I213
tp1344
a(I208
I245
tp1345
a(I208
I249
tp1346
a(I208
I250
tp1347
a(I208
I253
tp1348
a(I209
I210
tp1349
a(I209
I211
tp1350
a(I209
I212
tp1351
a(I209
I213
tp1352
a(I209
I214
tp1353
a(I209
I250
tp1354
a(I210
I211
tp1355
a(I210
I212
tp1356
a(I210
I213
tp1357
a(I210
I214
tp1358
a(I211
I212
tp1359
a(I211
I213
tp1360
a(I211
I214
tp1361
a(I211
I215
tp1362
a(I212
I213
tp1363
a(I212
I214
tp1364
a(I212
I215
tp1365
a(I212
I216
tp1366
a(I212
I242
tp1367
a(I212
I245
tp1368
a(I212
I246
tp1369
a(I213
I214
tp1370
a(I213
I215
tp1371
a(I213
I216
tp1372
a(I213
I217
tp1373
a(I213
I246
tp1374
a(I214
I215
tp1375
a(I214
I216
tp1376
a(I214
I217
tp1377
a(I214
I218
tp1378
a(I215
I216
tp1379
a(I215
I217
tp1380
a(I215
I218
tp1381
a(I215
I219
tp1382
a(I215
I242
tp1383
a(I216
I217
tp1384
a(I216
I218
tp1385
a(I216
I219
tp1386
a(I216
I220
tp1387
a(I216
I239
tp1388
a(I216
I242
tp1389
a(I216
I243
tp1390
a(I216
I246
tp1391
a(I217
I218
tp1392
a(I217
I219
tp1393
a(I217
I220
tp1394
a(I217
I221
tp1395
a(I218
I219
tp1396
a(I218
I220
tp1397
a(I218
I221
tp1398
a(I218
I222
tp1399
a(I219
I220
tp1400
a(I219
I221
tp1401
a(I219
I222
tp1402
a(I219
I223
tp1403
a(I219
I225
tp1404
a(I219
I230
tp1405
a(I219
I238
tp1406
a(I219
I239
tp1407
a(I219
I242
tp1408
a(I220
I221
tp1409
a(I220
I222
tp1410
a(I220
I223
tp1411
a(I220
I225
tp1412
a(I220
I226
tp1413
a(I221
I222
tp1414
a(I221
I223
tp1415
a(I221
I226
tp1416
a(I221
I227
tp1417
a(I222
I223
tp1418
a(I222
I224
tp1419
a(I222
I227
tp1420
a(I222
I228
tp1421
a(I222
I229
tp1422
a(I222
I230
tp1423
a(I223
I224
tp1424
a(I223
I225
tp1425
a(I223
I226
tp1426
a(I223
I227
tp1427
a(I223
I228
tp1428
a(I223
I230
tp1429
a(I224
I225
tp1430
a(I224
I226
tp1431
a(I224
I228
tp1432
a(I224
I230
tp1433
a(I224
I231
tp1434
a(I224
I232
tp1435
a(I224
I235
tp1436
a(I225
I226
tp1437
a(I225
I235
tp1438
a(I226
I227
tp1439
a(I226
I228
tp1440
a(I227
I228
tp1441
a(I227
I229
tp1442
a(I228
I229
tp1443
a(I228
I230
tp1444
a(I229
I230
tp1445
a(I229
I231
tp1446
a(I230
I231
tp1447
a(I230
I232
tp1448
a(I230
I234
tp1449
a(I230
I235
tp1450
a(I231
I232
tp1451
a(I231
I233
tp1452
a(I231
I234
tp1453
a(I231
I235
tp1454
a(I232
I233
tp1455
a(I232
I234
tp1456
a(I232
I235
tp1457
a(I232
I236
tp1458
a(I233
I234
tp1459
a(I233
I235
tp1460
a(I233
I236
tp1461
a(I233
I237
tp1462
a(I234
I235
tp1463
a(I234
I236
tp1464
a(I234
I237
tp1465
a(I234
I238
tp1466
a(I235
I236
tp1467
a(I235
I237
tp1468
a(I235
I238
tp1469
a(I235
I239
tp1470
a(I236
I237
tp1471
a(I236
I238
tp1472
a(I236
I239
tp1473
a(I236
I240
tp1474
a(I237
I238
tp1475
a(I237
I239
tp1476
a(I237
I240
tp1477
a(I237
I241
tp1478
a(I238
I239
tp1479
a(I238
I240
tp1480
a(I238
I241
tp1481
a(I238
I242
tp1482
a(I239
I240
tp1483
a(I239
I241
tp1484
a(I239
I242
tp1485
a(I239
I243
tp1486
a(I240
I241
tp1487
a(I240
I242
tp1488
a(I240
I243
tp1489
a(I240
I244
tp1490
a(I241
I242
tp1491
a(I241
I243
tp1492
a(I241
I244
tp1493
a(I241
I245
tp1494
a(I242
I243
tp1495
a(I242
I244
tp1496
a(I242
I245
tp1497
a(I242
I246
tp1498
a(I242
I247
tp1499
a(I243
I244
tp1500
a(I243
I245
tp1501
a(I243
I246
tp1502
a(I243
I247
tp1503
a(I243
I248
tp1504
a(I244
I245
tp1505
a(I244
I246
tp1506
a(I244
I247
tp1507
a(I244
I248
tp1508
a(I244
I249
tp1509
a(I245
I246
tp1510
a(I245
I247
tp1511
a(I245
I249
tp1512
a(I245
I250
tp1513
a(I246
I247
tp1514
a(I246
I248
tp1515
a(I246
I250
tp1516
a(I247
I248
tp1517
a(I247
I249
tp1518
a(I247
I250
tp1519
a(I247
I251
tp1520
a(I248
I249
tp1521
a(I248
I250
tp1522
a(I248
I251
tp1523
a(I248
I252
tp1524
a(I249
I250
tp1525
a(I249
I251
tp1526
a(I249
I252
tp1527
a(I249
I253
tp1528
a(I250
I251
tp1529
a(I250
I252
tp1530
a(I250
I253
tp1531
a(I250
I254
tp1532
a(I251
I252
tp1533
a(I251
I253
tp1534
a(I251
I254
tp1535
a(I251
I255
tp1536
a(I252
I253
tp1537
a(I252
I254
tp1538
a(I252
I255
tp1539
a(I252
I256
tp1540
a(I253
I254
tp1541
a(I253
I255
tp1542
a(I253
I256
tp1543
a(I253
I257
tp1544
a(I254
I255
tp1545
a(I254
I256
tp1546
a(I254
I257
tp1547
a(I254
I258
tp1548
a(I255
I256
tp1549
a(I255
I257
tp1550
a(I255
I258
tp1551
a(I255
I259
tp1552
a(I256
I257
tp1553
a(I256
I258
tp1554
a(I256
I259
tp1555
a(I256
I260
tp1556
a(I257
I258
tp1557
a(I257
I259
tp1558
a(I257
I260
tp1559
a(I257
I261
tp1560
a(I258
I259
tp1561
a(I258
I260
tp1562
a(I258
I261
tp1563
a(I258
I262
tp1564
a(I259
I260
tp1565
a(I259
I261
tp1566
a(I259
I262
tp1567
a(I259
I263
tp1568
a(I260
I261
tp1569
a(I260
I262
tp1570
a(I260
I263
tp1571
a(I260
I264
tp1572
a(I261
I262
tp1573
a(I261
I263
tp1574
a(I261
I264
tp1575
a(I261
I265
tp1576
a(I261
I289
tp1577
a(I262
I263
tp1578
a(I262
I264
tp1579
a(I262
I265
tp1580
a(I262
I266
tp1581
a(I263
I264
tp1582
a(I263
I265
tp1583
a(I263
I266
tp1584
a(I263
I267
tp1585
a(I264
I265
tp1586
a(I264
I266
tp1587
a(I264
I267
tp1588
a(I264
I268
tp1589
a(I264
I269
tp1590
a(I264
I289
tp1591
a(I264
I290
tp1592
a(I264
I291
tp1593
a(I265
I266
tp1594
a(I265
I267
tp1595
a(I265
I268
tp1596
a(I265
I269
tp1597
a(I265
I270
tp1598
a(I265
I289
tp1599
a(I266
I267
tp1600
a(I266
I268
tp1601
a(I266
I269
tp1602
a(I267
I268
tp1603
a(I267
I269
tp1604
a(I268
I269
tp1605
a(I268
I270
tp1606
a(I268
I271
tp1607
a(I268
I290
tp1608
a(I268
I291
tp1609
a(I269
I270
tp1610
a(I269
I271
tp1611
a(I270
I271
tp1612
a(I270
I272
tp1613
a(I270
I289
tp1614
a(I271
I272
tp1615
a(I271
I273
tp1616
a(I271
I288
tp1617
a(I271
I289
tp1618
a(I271
I290
tp1619
a(I271
I291
tp1620
a(I271
I292
tp1621
a(I272
I273
tp1622
a(I272
I274
tp1623
a(I272
I287
tp1624
a(I272
I288
tp1625
a(I272
I289
tp1626
a(I273
I274
tp1627
a(I273
I275
tp1628
a(I273
I286
tp1629
a(I273
I287
tp1630
a(I273
I288
tp1631
a(I273
I290
tp1632
a(I274
I275
tp1633
a(I274
I276
tp1634
a(I274
I285
tp1635
a(I274
I286
tp1636
a(I274
I287
tp1637
a(I275
I276
tp1638
a(I275
I277
tp1639
a(I275
I284
tp1640
a(I275
I285
tp1641
a(I275
I286
tp1642
a(I275
I288
tp1643
a(I276
I277
tp1644
a(I276
I284
tp1645
a(I277
I284
tp1646
a(I277
I286
tp1647
a(I284
I285
tp1648
a(I284
I286
tp1649
a(I285
I286
tp1650
a(I285
I287
tp1651
a(I286
I287
tp1652
a(I286
I288
tp1653
a(I287
I288
tp1654
a(I287
I289
tp1655
a(I288
I289
tp1656
a(I288
I290
tp1657
a(I289
I290
tp1658
a(I290
I291
tp1659
a(I290
I292
tp1660
a(I291
I292
tp1661
a(I292
I293
tp1662
atp1663
.