(lp1
(S'gag'
S'cgc'
S'ggc'
S'tac'
S'ggc'
tp2
a(S'tac'
S'atg'
S'ttc'
S'ggg'
S'ttc'
tp3
a(S'cat'
S'ctc'
S'gac'
S'atg'
S'gac'
tp4
a(S'gcc'
S'ttc'
S'gag'
S'agc'
S'gag'
tp5
a(S'cca'
S'caa'
S'ctg'
S'tat'
S'ctg'
tp6
a(S'gct'
S'acc'
S'gct'
S'gcc'
S'gct'
tp7
a(S'gga'
S'tca'
S'aaa'
S'gga'
S'aaa'
tp8
a(S'tat'
S'tac'
S'gga'
S'tac'
S'gga'
tp9
a(S'caa'
S'act'
S'gcc'
S'acc'
S'gcc'
tp10
a(S'gtg'
S'ctt'
S'gtg'
S'tat'
S'gtg'
tp11
a(S'aat'
S'gag'
S'gtg'
S'tgc'
S'gtg'
tp12
a(S'cca'
S'aac'
S'cca'
S'ttc'
S'cca'
tp13
a(S'ccc'
S'aat'
S'gaa'
S'tcc'
S'gaa'
tp14
a(S'tac'
S'ggt'
S'gac'
S'gaa'
S'gac'
tp15
a(S'cac'
S'tct'
S'cac'
S'ctg'
S'cac'
tp16
a(S'ccc'
S'gtt'
S'ttt'
S'gct'
S'ttt'
tp17
a(S'gtg'
S'att'
S'gtc'
S'ttt'
S'gtc'
tp18
a(S'cat'
S'tgc'
S'tgc'
S'ggc'
S'tgc'
tp19
a(S'ggg'
S'atc'
S'gga'
S'aag'
S'gga'
tp20
a(S'tat'
S'ccg'
S'cca'
S'ctg'
S'cca'
tp21
a(S'gag'
S'aac'
S'gcc'
S'gtc'
S'gcc'
tp22
a(S'---'
S'aac'
S'---'
S'atg'
S'---'
tp23
a(S'---'
S'ggc'
S'gac'
S'gtg'
S'gac'
tp24
a(S'---'
S'cag'
S'aag'
S'ccc'
S'aag'
tp25
a(S'gaa'
S'tgc'
S'tgc'
S'gag'
S'tgc'
tp26
a(S'cag'
S'ttc'
S'tat'
S'gct'
S'tat'
tp27
a(S'tgc'
p28
g28
g28
S'gac'
S'tgc'
tp29
a(S'agc'
S'ttg'
S'tcc'
S'gca'
S'tcc'
tp30
a(S'tcc'
S'gct'
S'gct'
S'gga'
S'gga'
tp31
a(S'atc'
S'tgg'
S'tgg'
S'tgg'
S'tgg'
tp32
a(S'tac'
S'ctt'
S'ctg'
S'ctg'
S'ctg'
tp33
a(S'atc'
S'aaa'
S'cac'
S'cac'
S'cac'
tp34
a(S'tac'
S'tcc'
S'agc'
S'tcc'
S'tcc'
tp35
a(S'tat'
S'aac'
S'aga'
S'cat'
S'cat'
tp36
a(S'gga'
p37
g37
g37
S'ggc'
S'ggc'
tp38
a(S'gcc'
S'aca'
S'aca'
S'acc'
S'acc'
tp39
a(S'ctg'
S'aat'
S'cca'
S'cag'
S'cag'
tp40
a(S'tgg'
S'gcc'
S'gga'
S'gca'
S'gca'
tp41
a(S'gag'
p42
g42
g42
S'gag'
S'gag'
tp43
a(S'cag'
S'aag'
S'aag'
S'ttc'
S'ttc'
tp44
a(S'gaa'
S'ttg'
S'atc'
S'gtg'
S'gtg'
tp45
a(S'aca'
S'gct'
S'ggc'
S'gcc'
S'gcc'
tp46
a(S'gcc'
p47
g47
g47
S'gct'
S'gct'
tp48
a(S'agg'
S'aac'
S'cag'
S'act'
S'act'
tp49
a(S'ggc'
S'att'
S'gtc'
S'gcc'
S'gcc'
tp50
a(S'ttc'
S'ctg'
S'tgc'
S'tgt'
S'tgt'
tp51
a(S'cag'
p52
g52
g52
S'cag'
S'cag'
tp53
a(S'tgg'
p54
g54
g54
S'tac'
S'tac'
tp55
a(S'ttt'
S'att'
S'att'
S'acc'
S'acc'
tp56
a(S'gcc'
S'act'
S'gct'
S'gcc'
S'gcc'
tp57
a(S'gtg'
S'ttt'
S'ttc'
S'ctg'
S'ctg'
tp58
a(S'ttc'
S'gcg'
S'agc'
S'agc'
S'agc'
tp59
a(S'ctg'
S'ctt'
S'atc'
S'ctg'
S'ctg'
tp60
a(S'tct'
S'tca'
S'gcc'
S'gct'
S'gct'
tp61
a(S'gcc'
S'gcg'
S'atc'
S'ctg'
S'ctg'
tp62
a(S'ctg'
S'ctc'
S'gcc'
S'ctg'
S'ctg'
tp63
a(S'ttt'
S'tgc'
S'ctg'
S'ctg'
S'ctg'
tp64
a(S'ctg'
p65
g65
g65
S'ctg'
S'ctg'
tp66
a(S'gct'
S'atg'
S'aca'
S'tcc'
S'tcc'
tp67
a(S'ttc'
p68
g68
g68
S'ttt'
S'ttt'
tp69
a(S'tac'
p70
g70
g70
S'tac'
S'tac'
tp71
a(S'ggc'
p72
g72
g72
S'gca'
S'gca'
tp73
a(S'tgg'
S'tac'
S'ttc'
S'tat'
S'tat'
tp74
a(S'cac'
S'cag'
S'agc'
S'tct'
S'tct'
tp75
a(S'gcc'
S'acc'
S'gcc'
S'gcc'
S'gcc'
tp76
a(S'tat'
S'tgg'
S'tgg'
S'tgg'
S'tgg'
tp77
a(S'aag'
p78
g78
g78
S'aaa'
S'aaa'
tp79
a(S'gcc'
S'tct'
S'gcc'
S'gct'
S'gct'
tp80
a(S'agc'
S'act'
S'act'
S'acc'
S'acc'
tp81
a(S'gtg'
S'tgc'
S'tgc'
S'tgc'
S'tgc'
tp82
a(S'ggc'
p83
g83
g83
S'ggc'
S'ggc'
tp84
a(S'tgg'
p85
g85
g85
S'tgg'
S'tgg'
tp86
a(S'gag'
p87
g87
g87
S'gag'
S'gag'
tp88
a(S'gag'
p89
g89
g89
S'gaa'
S'gaa'
tp90
a(S'gtg'
S'att'
S'gtc'
S'ggc'
S'ggc'
tp91
a(S'tac'
p92
g92
g92
S'tat'
S'tat'
tp93
a(S'gtg'
p94
g94
g94
S'gtc'
S'gtc'
tp95
a(S'tgc'
S'gcc'
S'tgt'
S'tgc'
S'tgc'
tp96
a(S'tcc'
S'acg'
S'tgc'
S'tgt'
S'tgt'
tp97
a(S'gtg'
S'atc'
S'gtc'
S'gtg'
S'gtg'
tp98
a(S'gag'
p99
g99
g99
S'gaa'
S'gaa'
tp100
a(S'ctg'
S'atg'
S'gtg'
S'gtc'
S'gtc'
tp101
a(S'atc'
S'atc'
S'ctg'
S'ctg'
S'ctg'
tp102
a(S'aaa'
S'aag'
S'ttc'
S'ttc'
S'ttc'
tp103
a(S'gtg'
S'ttc'
S'gtg'
S'gtg'
S'gtg'
tp104
a(S'att'
S'atc'
S'acc'
S'aca'
S'aca'
tp105
a(S'ctg'
S'atc'
S'ctg'
S'ctg'
S'ctg'
tp106
a(S'gag'
p107
g107
g107
S'gaa'
S'gaa'
tp108
a(S'atc'
S'tat'
S'atc'
S'atc'
S'atc'
tp109
a(S'tat'
S'ttc'
S'ttc'
S'agt'
S'agt'
tp110
a(S'ttc'
S'cat'
S'aag'
S'aac'
S'aac'
tp111
a(S'gag'
p112
g112
g112
S'gag'
S'gag'
tp113
a(S'ttt'
p114
g114
g114
S'ttt'
S'ttt'
tp115
a(S'acc'
S'gac'
S'agc'
S'aat'
S'aat'
tp116
a(S'agt'
S'gaa'
S'agc'
S'tca'
S'tca'
tp117
a(S'cct'
p118
g118
g118
S'cct'
S'cct'
tp119
a(S'gcg'
p120
g120
g120
S'gct'
S'gct'
tp121
a(S'atg'
S'gtg'
S'aca'
S'aca'
S'aca'
tp122
a(S'ctg'
S'atc'
S'gtg'
S'ctg'
S'ctg'
tp123
a(S'ttc'
S'tac'
S'tac'
S'tac'
S'tac'
tp124
a(S'ctg'
S'tca'
S'ctg'
S'ctg'
S'ctg'
tp125
a(S'tac'
S'tcc'
S'tct'
S'tct'
S'tct'
tp126
a(S'gga'
S'aac'
S'acc'
S'act'
S'act'
tp127
a(S'ggc'
p128
g128
g128
S'ggg'
S'ggg'
tp129
a(S'aac'
p130
g130
g130
S'aat'
S'aat'
tp131
a(S'att'
S'aag'
S'cac'
S'tac'
S'tac'
tp132
a(S'acc'
S'acc'
S'gcc'
S'tgc'
S'tgc'
tp133
a(S'cca'
S'gtg'
S'tat'
S'tat'
S'tat'
tp134
a(S'tgg'
S'tgg'
S'tgc'
S'ttc'
S'ttc'
tp135
a(S'ctt'
p136
g136
g136
S'ctg'
S'ctg'
tp137
a(S'cgt'
p138
g138
g138
S'cgg'
S'cgg'
tp139
a(S'tac'
p140
g140
g140
S'tat'
S'tat'
tp141
a(S'gcc'
S'gcg'
S'ttc'
S'gga'
S'gga'
tp142
a(S'gag'
p143
g143
g143
S'gag'
S'gag'
tp144
a(S'tgg'
p145
g145
g145
S'tgg'
S'tgg'
tp146
a(S'ctg'
p147
g147
g147
S'ctg'
S'ctg'
tp148
a(S'ctg'
p149
g149
g149
S'ctg'
S'ctg'
tp150
a(S'aca'
S'acc'
S'tct'
S'agc'
S'agc'
tp151
a(S'tgc'
p152
g152
g152
S'tgt'
S'tgt'
tp153
a(S'cct'
p154
g154
g154
S'cca'
S'cca'
tp155
a(S'gtc'
p156
g156
g156
S'gtg'
S'gtg'
tp157
a(S'att'
p158
g158
g158
S'atc'
S'atc'
tp159
a(S'ctt'
p160
g160
g160
S'ctg'
S'ctg'
tp161
a(S'atc'
p162
g162
g162
S'att'
S'att'
tp163
a(S'cat'
S'cat'
S'aga'
S'cac'
S'cac'
tp164
a(S'ctg'
p165
g165
g165
S'ctg'
S'ctg'
tp166
a(S'agc'
p167
g167
g167
S'agc'
S'agc'
tp168
a(S'aac'
p169
g169
g169
S'aac'
S'aac'
tp170
a(S'atc'
S'ctt'
S'ctg'
S'ctg'
S'ctg'
tp171
a(S'acc'
S'acg'
S'agc'
S'tcc'
S'tcc'
tp172
a(S'ggt'
p173
g173
g173
S'ggc'
S'ggc'
tp174
a(S'ctg'
p175
g175
g175
S'ctg'
S'ctg'
tp176
a(S'agt'
S'gcg'
S'aag'
S'aag'
S'aag'
tp177
a(S'gag'
S'aac'
S'aac'
S'aat'
S'aat'
tp178
a(S'gca'
S'gac'
S'gac'
S'gat'
S'gat'
tp179
a(S'tat'
p180
g180
g180
S'tac'
S'tac'
tp181
a(S'aat'
S'aac'
S'agc'
S'tct'
S'tct'
tp182
a(S'aag'
p183
g183
g183
S'atg'
S'atg'
tp184
a(S'cgt'
p185
g185
g185
S'cgg'
S'cgg'
tp186
a(S'acc'
p187
g187
g187
S'aca'
S'aca'
tp188
a(S'atg'
p189
g189
g189
S'atg'
S'atg'
tp190
a(S'gct'
S'ggt'
S'ggc'
S'aga'
S'aga'
tp191
a(S'ctg'
p192
g192
g192
S'ctg'
S'ctg'
tp193
a(S'ctg'
S'ctg'
S'atc'
S'ctg'
S'ctg'
tp194
a(S'gtg'
p195
g195
g195
S'gtg'
S'gtg'
tp196
a(S'tca'
p197
g197
g197
S'agt'
S'agt'
tp198
a(S'gac'
S'gat'
S'tgc'
S'tgt'
S'tgt'
tp199
a(S'ctg'
S'atc'
S'gtg'
S'atc'
S'atc'
tp200
a(S'ggc'
p201
g201
g201
S'ggc'
S'ggc'
tp202
a(S'act'
S'acg'
S'atg'
S'atg'
S'atg'
tp203
a(S'atc'
p204
g204
g204
S'ctg'
S'ctg'
tp205
a(S'tgc'
S'gtg'
S'gtg'
S'att'
S'att'
tp206
a(S'atg'
S'tgg'
S'ttc'
S'act'
S'act'
tp207
a(S'ggc'
p208
g208
g208
S'ggg'
S'ggg'
tp209
a(S'gtg'
S'acc'
S'atg'
S'atg'
S'atg'
tp210
a(S'aca'
S'acg'
S'gcc'
S'gca'
S'gca'
tp211
a(S'gcc'
p212
g212
g212
S'gga'
S'gga'
tp213
a(S'gct'
S'gcg'
S'gga'
S'gga'
S'gga'
tp214
a(S'ctg'
p215
g215
g215
S'ctg'
S'ctg'
tp216
a(S'gcc'
S'tcc'
S'gct'
S'gga'
S'gga'
tp217
a(S'act'
S'aag'
S'acc'
S'gtc'
S'gtc'
tp218
a(S'ggg'
S'gga'
S'gat'
S'gga'
S'gga'
tp219
a(S'tgg'
S'tac'
S'tgg'
S'tgg'
S'tgg'
tp220
a(S'gtg'
S'gtc'
S'ctc'
S'gtg'
S'gtg'
tp221
a(S'aag'
S'cgt'
S'aaa'
S'aag'
S'aag'
tp222
a(S'tgg'
S'gtc'
S'tgg'
S'tgg'
S'tgg'
tp223
a(S'ctg'
S'att'
S'ctg'
S'act'
S'act'
tp224
a(S'ttt'
S'ttc'
S'ctg'
S'ctg'
S'ctg'
tp225
a(S'tac'
S'ttc'
S'tat'
S'tac'
S'tac'
tp226
a(S'tgt'
S'ctg'
S'atc'
S'ttt'
S'ttt'
tp227
a(S'atc'
S'atg'
S'gtg'
S'gtg'
S'gtg'
tp228
a(S'ggc'
S'ggc'
S'tct'
S'tca'
S'tca'
tp229
a(S'ctg'
S'ctg'
S'tgc'
S'tgc'
S'tgc'
tp230
a(S'gtg'
S'tgc'
S'atc'
S'gca'
S'gca'
tp231
a(S'tac'
p232
g232
g232
S'tac'
S'tac'
tp233
a(S'ggc'
p234
g234
g234
S'agc'
S'agc'
tp235
a(S'acc'
S'atc'
S'ggc'
S'gcc'
S'gcc'
tp236
a(S'cag'
S'tac'
S'tac'
S'cag'
S'cag'
tp237
a(S'aca'
S'aca'
S'atg'
S'acc'
S'acc'
tp238
a(S'ttc'
S'ttc'
S'tac'
S'tat'
S'tat'
tp239
a(S'tac'
S'ttc'
S'ttc'
S'ctg'
S'ctg'
tp240
a(S'aac'
S'aac'
S'cag'
S'cag'
S'cag'
tp241
a(S'gca'
p242
g242
g242
S'gca'
S'gca'
tp243
a(S'gga'
S'gcc'
S'gcc'
S'gcc'
S'gcc'
tp244
a(S'atc'
S'aag'
S'aag'
S'aaa'
S'aaa'
tp245
a(S'atc'
S'gtc'
S'tgc'
S'tgt'
S'tgt'
tp246
a(S'tac'
p247
g247
g247
S'tac'
S'tac'
tp248
a(S'gtg'
S'att'
S'gtg'
S'gtg'
S'gtg'
tp249
a(S'gag'
p250
g250
g250
S'gaa'
S'gaa'
tp251
a(S'tct'
S'gcg'
S'gcc'
S'gtc'
S'gtc'
tp252
a(S'tac'
S'tac'
S'aac'
S'tat'
S'tat'
tp253
a(S'tat'
S'cac'
S'cac'
S'gca'
S'gca'
tp254
a(S'atc'
S'acc'
S'agc'
S'acc'
S'acc'
tp255
a(S'atg'
S'gtg'
S'gtg'
S'gtg'
S'gtg'
tp256
a(S'ccg'
p257
g257
g257
S'ccc'
S'ccc'
tp258
a(S'gcc'
S'aag'
S'aaa'
S'aag'
S'aag'
tp259
a(S'ggc'
p260
g260
g260
S'gga'
S'gga'
tp261
a(S'ggc'
S'cgg'
S'cat'
S'tac'
S'tac'
tp262
a(S'tgt'
p263
g263
g263
S'tgc'
S'tgc'
tp264
a(S'aag'
S'cgc'
S'cgc'
S'cga'
S'cga'
tp265
a(S'aaa'
S'cag'
S'atg'
S'aca'
S'aca'
tp266
a(S'ctg'
S'gtg'
S'gtc'
S'gtg'
S'gtg'
tp267
a(S'gtg'
p268
g268
g268
S'gtc'
S'gtc'
tp269
a(S'ctg'
S'act'
S'aag'
S'aaa'
S'aaa'
tp270
a(S'gcc'
S'ggc'
S'ctg'
S'ctg'
S'ctg'
tp271
a(S'atg'
p272
g272
g272
S'atg'
S'atg'
tp273
a(S'act'
S'gct'
S'gcc'
S'gcc'
S'gcc'
tp274
a(S'gcc'
S'tgg'
S'tac'
S'tac'
S'tac'
tp275
a(S'gtg'
S'ctc'
S'gct'
S'gct'
S'gct'
tp276
a(S'tac'
S'ttc'
S'tac'
S'ttc'
S'ttc'
tp277
a(S'tat'
S'ttc'
S'ttc'
S'ttt'
S'ttt'
tp278
a(S'tct'
S'gta'
S'gcc'
S'aca'
S'aca'
tp279
a(S'tca'
p280
g280
g280
S'gct'
S'gct'
tp281
a(S'tgg'
p282
g282
g282
S'tgg'
S'tgg'
tp283
a(S'ctg'
S'ggt'
S'ggc'
S'ggc'
S'ggc'
tp284
a(S'atg'
S'atg'
S'agc'
S'gca'
S'gca'
tp285
a(S'ttt'
S'ttc'
S'tac'
S'tat'
S'tat'
tp286
a(S'ccc'
p287
g287
g287
S'cca'
S'cca'
tp288
a(S'ggc'
S'atc'
S'atc'
S'atc'
S'atc'
tp289
a(S'ctg'
p290
g290
g290
S'ctg'
S'ctg'
tp291
a(S'ttc'
S'ttc'
S'tgg'
S'tgg'
S'tgg'
tp292
a(S'atc'
S'atc'
S'gca'
S'gcc'
S'gcc'
tp293
a(S'ttt'
S'ctc'
S'gtg'
S'att'
S'att'
tp294
a(S'ggc'
p295
g295
g295
S'ggg'
S'ggg'
tp296
a(S'ccc'
p297
g297
g297
S'ccc'
S'ccc'
tp298
a(S'gag'
p299
g299
g299
S'gag'
S'gag'
tp300
a(S'ggc'
p301
g301
g301
S'gga'
S'gga'
tp302
a(S'atg'
S'ttc'
S'ctg'
S'ctg'
S'ctg'
tp303
a(S'cac'
S'ggc'
S'ctg'
S'aaa'
S'aaa'
tp304
a(S'acc'
S'gtc'
S'aag'
S'tac'
S'tac'
tp305
a(S'ctg'
p306
g306
g306
S'atc'
S'atc'
tp307
a(S'agc'
p308
g308
g308
S'tct'
S'tct'
tp309
a(S'gtg'
S'gtg'
S'cct'
S'ggg'
S'ggg'
tp310
a(S'gct'
S'tac'
S'tac'
S'tat'
S'tat'
tp311
a(S'ggg'
S'ggc'
S'gcc'
S'agt'
S'agt'
tp312
a(S'tcc'
S'tcc'
S'aac'
S'aac'
S'aac'
tp313
a(S'act'
S'acc'
S'agc'
S'acc'
S'acc'
tp314
a(S'att'
S'gtc'
S'atc'
S'att'
S'att'
tp315
a(S'ggc'
p316
g316
g316
S'gct'
S'gct'
tp317
a(S'cac'
p318
g318
g318
S'cac'
S'cac'
tp319
a(S'acc'
S'acc'
S'agc'
S'aca'
S'aca'
tp320
a(S'atc'
p321
g321
g321
S'ttc'
S'ttc'
tp322
a(S'gcc'
S'att'
S'tgc'
S'tgc'
S'tgc'
tp323
a(S'gac'
p324
g324
g324
S'gac'
S'gac'
tp325
a(S'ctg'
S'ctg'
S'atc'
S'atc'
S'atc'
tp326
a(S'ctg'
S'atg'
S'atc'
S'ctg'
S'ctg'
tp327
a(S'tcc'
S'tcg'
S'gcc'
S'gca'
S'gca'
tp328
a(S'aag'
p329
g329
g329
S'aag'
S'aag'
tp330
a(S'aat'
S'aac'
S'gag'
S'gaa'
S'gaa'
tp331
a(S'att'
S'tgc'
S'ttt'
S'att'
S'att'
tp332
a(S'tgg'
p333
g333
g333
S'tgg'
S'tgg'
tp334
a(S'gga'
S'ggt'
S'acc'
S'act'
S'act'
tp335
a(S'ctg'
S'ctg'
S'ttc'
S'ttt'
S'ttt'
tp336
a(S'ctc'
p337
g337
g337
S'ctg'
S'ctg'
tp338
a(S'ggg'
S'ggc'
S'gcc'
S'ggc'
S'ggc'
tp339
a(S'cac'
p340
g340
g340
S'cac'
S'cac'
tp341
a(S'ttc'
S'tac'
S'cac'
S'cat'
S'cat'
tp342
a(S'ctg'
p343
g343
g343
S'ctg'
S'ctg'
tp344
a(S'cgc'
p345
g345
g345
S'aga'
S'aga'
tp346
a(S'atc'
S'gtg'
S'atc'
S'atc'
S'atc'
tp347
a(S'aaa'
S'ctg'
S'aag'
S'aaa'
S'aaa'
tp348
a(S'atc'
p349
g349
g349
S'att'
S'att'
tp350
a(S'cac'
p351
g351
g351
S'cac'
S'cac'
tp352
a(S'gag'
p353
g353
g353
S'gag'
S'gag'
tp354
a(S'cat'
p355
g355
g355
S'cat'
S'cat'
tp356
a(S'atc'
p357
g357
g357
S'atc'
S'atc'
tp358
a(S'att'
S'ctc'
S'ctg'
S'ctg'
S'ctg'
tp359
a(S'atg'
S'atc'
S'atc'
S'att'
S'att'
tp360
a(S'tac'
S'cac'
S'cac'
S'cat'
S'cat'
tp361
a(S'ggc'
p362
g362
g362
S'ggc'
S'ggc'
tp363
a(S'gac'
p364
g364
g364
S'gac'
S'gac'
tp365
a(S'att'
p366
g366
g366
S'atc'
S'atc'
tp367
a(S'cgc'
p368
g368
g368
S'agg'
S'agg'
tp369
a(S'aga'
S'aag'
S'aag'
S'aag'
S'aag'
tp370
a(S'cca'
S'acc'
S'acc'
S'aaa'
S'aaa'
tp371
a(S'gtg'
S'acc'
S'acc'
S'gtg'
S'gtg'
tp372
a(S'agc'
S'aaa'
S'aag'
S'cag'
S'cag'
tp373
a(S'tcc'
S'ttg'
S'atg'
S'gtc'
S'gtc'
tp374
a(S'cag'
S'aac'
S'gag'
S'cgc'
S'cgc'
tp375
a(S'ttt'
S'att'
S'atc'
S'gtg'
S'gtg'
tp376
a(S'ctg'
S'ggt'
S'gga'
S'gcc'
S'gcc'
tp377
a(S'ggc'
p378
g378
g378
S'ggg'
S'ggg'
tp379
a(S'cgc'
S'act'
S'gag'
S'gaa'
S'gaa'
tp380
a(S'aag'
S'gag'
S'gag'
S'ctg'
S'ctg'
tp381
a(S'gtg'
S'att'
S'gtg'
S'atg'
S'atg'
tp382
a(S'gac'
S'gag'
S'gaa'
S'aat'
S'aat'
tp383
a(S'gtc'
p384
g384
g384
S'gtc'
S'gtc'
tp385
a(S'ctg'
S'gag'
S'gaa'
S'gag'
S'gag'
tp386
a(S'gcc'
S'acg'
S'gag'
S'gaa'
S'gaa'
tp387
a(S'ttc'
S'ctg'
S'ttc'
S'ctg'
S'ctg'
tp388
a(S'gtg'
p389
g389
g389
S'atg'
S'atg'
tp390
a(S'aca'
S'gag'
S'gag'
S'gag'
S'gag'
tp391
a(S'gag'
S'gac'
S'gag'
S'gaa'
S'gaa'
tp392
a(S'gag'
p393
g393
g393
S'gag'
p394
S'gag'
p395
tp396
a.