(lp1
(I102
S'T'
tp2
a(I266
S'I'
tp3
a((I29
S'I'
t(I100
S'L'
ttp4
a((I33
S'Y'
t(I232
S'P'
ttp5
a((I33
S'Y'
t(I233
S'Y'
ttp6
a((I48
S'F'
t(I50
S'V'
ttp7
a((I48
S'I'
t(I52
S'L'
ttp8
a((I48
S'F'
t(I52
S'L'
ttp9
a((I50
S'F'
t(I52
S'L'
ttp10
a((I50
S'V'
t(I52
S'L'
ttp11
a((I50
S'F'
t(I53
S'S'
ttp12
a((I50
S'V'
t(I53
S'S'
ttp13
a((I50
S'F'
t(I54
S'A'
ttp14
a((I53
S'S'
t(I81
S'V'
ttp15
a((I54
S'A'
t(I81
S'L'
ttp16
a((I54
S'A'
t(I81
S'V'
ttp17
a((I79
S'I'
t(I117
S'T'
ttp18
a((I79
S'V'
t(I117
S'T'
ttp19
a((I93
S'T'
t(I97
S'T'
ttp20
a((I97
S'V'
t(I108
S'W'
ttp21
a((I102
S'T'
t(I103
S'G'
ttp22
a((I106
S'T'
t(I108
S'C'
ttp23
a((I106
S'T'
t(I108
S'W'
ttp24
a((I106
S'A'
t(I154
S'M'
ttp25
a((I106
S'A'
t(I154
S'T'
ttp26
a((I106
S'A'
t(I157
S'G'
ttp27
a((I124
S'H'
t(I128
S'L'
ttp28
a((I124
S'R'
t(I128
S'L'
ttp29
a((I124
S'H'
t(I251
S'T'
ttp30
a((I124
S'R'
t(I251
S'T'
ttp31
a((I124
S'H'
t(I254
S'A'
ttp32
a((I124
S'R'
t(I254
S'A'
ttp33
a((I128
S'I'
t(I254
S'A'
ttp34
a((I128
S'I'
t(I254
S'G'
ttp35
a((I128
S'L'
t(I254
S'A'
ttp36
a((I128
S'L'
t(I254
S'G'
ttp37
a((I129
S'S'
t(I132
S'S'
ttp38
a((I129
S'T'
t(I132
S'S'
ttp39
a((I129
S'T'
t(I132
S'K'
ttp40
a((I129
S'T'
t(I192
S'T'
ttp41
a((I129
S'S'
t(I193
S'V'
ttp42
a((I129
S'T'
t(I193
S'V'
ttp43
a((I141
S'G'
t(I143
S'I'
ttp44
a((I141
S'A'
t(I177
S'Q'
ttp45
a((I143
S'I'
t(I146
S'C'
ttp46
a((I143
S'I'
t(I146
S'D'
ttp47
a((I143
S'I'
t(I147
S'I'
ttp48
a((I143
S'I'
t(I147
S'V'
ttp49
a((I149
S'M'
t(I171
S'S'
ttp50
a((I149
S'T'
t(I171
S'S'
ttp51
a((I152
S'F'
t(I167
S'L'
ttp52
a((I152
S'F'
t(I170
S'V'
ttp53
a((I155
S'T'
t(I167
S'L'
ttp54
a((I157
S'A'
t(I220
S'W'
ttp55
a((I168
S'F'
t(I220
S'W'
ttp56
a((I172
S'C'
t(I176
S'T'
ttp57
a((I173
S'I'
t(I176
S'T'
ttp58
a((I173
S'C'
t(I176
S'I'
ttp59
a((I173
S'V'
t(I176
S'T'
ttp60
a((I173
S'I'
t(I177
S'Q'
ttp61
a((I173
S'I'
t(I177
S'Y'
ttp62
a((I173
S'V'
t(I177
S'Q'
ttp63
a((I188
S'E'
t(I277
S'S'
ttp64
a((I191
S'Y'
t(I275
S'T'
ttp65
a((I191
S'Y'
t(I275
S'V'
ttp66
a((I192
S'I'
t(I287
S'E'
ttp67
a((I192
S'I'
t(I287
S'L'
ttp68
a((I192
S'S'
t(I288
S'E'
ttp69
a((I193
S'M'
t(I288
S'A'
ttp70
a((I197
S'R'
t(I256
S'F'
ttp71
a((I199
S'K'
t(I288
S'T'
ttp72
a((I201
S'V'
t(I256
S'H'
ttp73
a((I208
S'A'
t(I245
S'L'
ttp74
a((I208
S'V'
t(I245
S'M'
ttp75
a((I208
S'V'
t(I245
S'L'
ttp76
a((I208
S'A'
t(I249
S'I'
ttp77
a((I208
S'A'
t(I249
S'F'
ttp78
a((I208
S'V'
t(I249
S'I'
ttp79
a((I208
S'V'
t(I249
S'C'
ttp80
a((I214
S'L'
t(I218
S'I'
ttp81
a((I214
S'G'
t(I218
S'I'
ttp82
a((I215
S'S'
t(I242
S'I'
ttp83
a((I216
S'Y'
t(I220
S'F'
ttp84
a((I216
S'Y'
t(I242
S'I'
ttp85
a((I252
S'L'
t(I256
S'H'
ttp86
a((I252
S'L'
t(I256
S'F'
ttp87
a((I254
S'G'
t(I256
S'H'
ttp88
a((I254
S'G'
t(I256
S'F'
ttp89
a((I262
S'H'
t(I266
S'I'
ttp90
a.