(lp1
(I102
S'T'
tp2
a(I108
S'W'
tp3
a(I256
S'H'
tp4
a(I266
S'I'
tp5
a((I29
S'I'
t(I100
S'L'
ttp6
a((I31
S'H'
t(I105
S'H'
ttp7
a((I33
S'Y'
t(I232
S'P'
ttp8
a((I33
S'Y'
t(I232
S'V'
ttp9
a((I33
S'R'
t(I232
S'P'
ttp10
a((I33
S'Y'
t(I233
S'A'
ttp11
a((I33
S'Y'
t(I233
S'Y'
ttp12
a((I41
S'G'
t(I237
S'I'
ttp13
a((I41
S'G'
t(I237
S'V'
ttp14
a((I45
S'C'
t(I237
S'I'
ttp15
a((I45
S'C'
t(I237
S'V'
ttp16
a((I45
S'F'
t(I240
S'T'
ttp17
a((I45
S'F'
t(I244
S'L'
ttp18
a((I48
S'I'
t(I50
S'V'
ttp19
a((I48
S'F'
t(I50
S'V'
ttp20
a((I48
S'F'
t(I52
S'L'
ttp21
a((I48
S'F'
t(I244
S'L'
ttp22
a((I50
S'V'
t(I51
S'S'
ttp23
a((I52
S'L'
t(I244
S'L'
ttp24
a((I53
S'A'
t(I81
S'L'
ttp25
a((I53
S'S'
t(I81
S'L'
ttp26
a((I53
S'S'
t(I81
S'V'
ttp27
a((I54
S'A'
t(I81
S'V'
ttp28
a((I79
S'I'
t(I117
S'T'
ttp29
a((I79
S'V'
t(I117
S'T'
ttp30
a((I93
S'S'
t(I97
S'M'
ttp31
a((I93
S'T'
t(I97
S'T'
ttp32
a((I95
S'P'
t(I108
S'C'
ttp33
a((I97
S'V'
t(I108
S'W'
ttp34
a((I101
S'S'
t(I102
S'T'
ttp35
a((I102
S'T'
t(I103
S'G'
ttp36
a((I106
S'T'
t(I108
S'C'
ttp37
a((I106
S'T'
t(I108
S'W'
ttp38
a((I106
S'A'
t(I154
S'M'
ttp39
a((I106
S'A'
t(I154
S'T'
ttp40
a((I106
S'A'
t(I157
S'A'
ttp41
a((I106
S'A'
t(I157
S'G'
ttp42
a((I124
S'H'
t(I128
S'L'
ttp43
a((I124
S'R'
t(I128
S'L'
ttp44
a((I124
S'H'
t(I251
S'T'
ttp45
a((I124
S'R'
t(I251
S'T'
ttp46
a((I124
S'H'
t(I254
S'A'
ttp47
a((I124
S'R'
t(I254
S'A'
ttp48
a((I128
S'I'
t(I254
S'A'
ttp49
a((I128
S'I'
t(I254
S'G'
ttp50
a((I128
S'L'
t(I254
S'A'
ttp51
a((I128
S'L'
t(I254
S'G'
ttp52
a((I129
S'S'
t(I132
S'S'
ttp53
a((I129
S'T'
t(I132
S'K'
ttp54
a((I129
S'T'
t(I192
S'T'
ttp55
a((I129
S'S'
t(I193
S'V'
ttp56
a((I129
S'T'
t(I193
S'V'
ttp57
a((I141
S'A'
t(I177
S'Q'
ttp58
a((I143
S'I'
t(I146
S'C'
ttp59
a((I143
S'I'
t(I146
S'D'
ttp60
a((I143
S'I'
t(I147
S'I'
ttp61
a((I143
S'I'
t(I147
S'V'
ttp62
a((I152
S'M'
t(I167
S'F'
ttp63
a((I157
S'A'
t(I220
S'W'
ttp64
a((I168
S'F'
t(I220
S'W'
ttp65
a((I172
S'C'
t(I176
S'I'
ttp66
a((I172
S'C'
t(I176
S'T'
ttp67
a((I173
S'I'
t(I176
S'I'
ttp68
a((I173
S'I'
t(I176
S'T'
ttp69
a((I173
S'I'
t(I177
S'Y'
ttp70
a((I188
S'E'
t(I277
S'S'
ttp71
a((I190
S'Y'
t(I203
S'T'
ttp72
a((I191
S'Y'
t(I277
S'L'
ttp73
a((I191
S'Y'
t(I288
S'T'
ttp74
a((I192
S'I'
t(I288
S'T'
ttp75
a((I192
S'S'
t(I288
S'E'
ttp76
a((I192
S'I'
t(I289
S'L'
ttp77
a((I192
S'I'
t(I289
S'F'
ttp78
a((I193
S'M'
t(I289
S'F'
ttp79
a((I197
S'R'
t(I256
S'F'
ttp80
a((I199
S'K'
t(I288
S'A'
ttp81
a((I199
S'K'
t(I288
S'T'
ttp82
a((I208
S'A'
t(I245
S'I'
ttp83
a((I208
S'A'
t(I245
S'L'
ttp84
a((I208
S'V'
t(I245
S'M'
ttp85
a((I208
S'V'
t(I245
S'L'
ttp86
a((I208
S'A'
t(I249
S'I'
ttp87
a((I208
S'A'
t(I249
S'F'
ttp88
a((I208
S'V'
t(I249
S'I'
ttp89
a((I208
S'V'
t(I249
S'C'
ttp90
a((I214
S'L'
t(I218
S'I'
ttp91
a((I214
S'L'
t(I218
S'G'
ttp92
a((I214
S'G'
t(I218
S'I'
ttp93
a((I214
S'G'
t(I218
S'G'
ttp94
a((I215
S'S'
t(I242
S'I'
ttp95
a((I216
S'Y'
t(I220
S'F'
ttp96
a((I216
S'Y'
t(I242
S'I'
ttp97
a((I252
S'L'
t(I256
S'H'
ttp98
a((I253
S'L'
t(I256
S'H'
ttp99
a((I254
S'G'
t(I256
S'H'
ttp100
a((I255
S'H'
t(I256
S'H'
ttp101
a((I262
S'H'
t(I266
S'I'
ttp102
a.