(lp1
(I0
S'E'
tp2
a(I0
S'G'
tp3
a(I1
S'Y'
tp4
a(I1
S'F'
tp5
a(I2
S'H'
tp6
a(I2
S'D'
tp7
a(I3
S'A'
tp8
a(I3
S'E'
tp9
a(I169
S'C'
tp10
a(I170
S'I'
tp11
a(I173
S'V'
tp12
a(I176
S'T'
tp13
a(I177
S'Q'
tp14
a(I218
S'G'
tp15
a(I222
S'L'
tp16
a(I227
S'M'
tp17
a(I228
S'H'
tp18
a(I229
S'T'
tp19
a((I0
S'E'
t(I1
S'Y'
ttp20
a((I0
S'G'
t(I1
S'F'
ttp21
a((I0
S'E'
t(I2
S'H'
ttp22
a((I0
S'G'
t(I2
S'D'
ttp23
a((I0
S'E'
t(I5
S'A'
ttp24
a((I1
S'Y'
t(I2
S'H'
ttp25
a((I4
S'P'
t(I6
S'G'
ttp26
a((I4
S'P'
t(I18
S'G'
ttp27
a((I29
S'W'
t(I100
S'L'
ttp28
a((I29
S'I'
t(I103
S'G'
ttp29
a((I30
S'L'
t(I31
S'H'
ttp30
a((I30
S'Y'
t(I32
S'Y'
ttp31
a((I34
S'G'
t(I35
S'A'
ttp32
a((I35
S'T'
t(I233
S'Y'
ttp33
a((I36
S'L'
t(I37
S'W'
ttp34
a((I48
S'I'
t(I50
S'V'
ttp35
a((I97
S'T'
t(I108
S'C'
ttp36
a((I106
S'A'
t(I154
S'M'
ttp37
a((I111
S'Y'
t(I154
S'V'
ttp38
a((I125
S'L'
t(I185
S'I'
ttp39
a((I129
S'T'
t(I192
S'I'
ttp40
a((I138
S'R'
t(I184
S'I'
ttp41
a((I141
S'A'
t(I181
S'N'
ttp42
a((I144
S'V'
t(I147
S'L'
ttp43
a((I146
S'C'
t(I178
S'M'
ttp44
a((I147
S'L'
t(I148
S'G'
ttp45
a((I149
S'M'
t(I178
S'M'
ttp46
a((I150
S'I'
t(I151
S'C'
ttp47
a((I159
S'A'
t(I163
S'V'
ttp48
a((I172
S'C'
t(I176
S'G'
ttp49
a((I173
S'V'
t(I174
S'Y'
ttp50
a((I173
S'I'
t(I177
S'Y'
ttp51
a((I185
S'I'
t(I189
S'S'
ttp52
a((I191
S'H'
t(I199
S'R'
ttp53
a((I199
S'R'
t(I288
S'A'
ttp54
a((I209
S'F'
t(I214
S'G'
ttp55
a((I211
S'V'
t(I214
S'G'
ttp56
a.