(lp1
(I102
S'T'
tp2
a(I169
S'C'
tp3
a(I170
S'I'
tp4
a(I173
S'V'
tp5
a(I222
S'L'
tp6
a(I266
S'I'
tp7
a(I278
S'Q'
tp8
a((I33
S'Y'
t(I233
S'A'
ttp9
a((I33
S'Y'
t(I233
S'Y'
ttp10
a((I48
S'I'
t(I50
S'V'
ttp11
a((I48
S'F'
t(I50
S'V'
ttp12
a((I48
S'I'
t(I52
S'L'
ttp13
a((I53
S'S'
t(I81
S'V'
ttp14
a((I54
S'A'
t(I81
S'V'
ttp15
a((I79
S'I'
t(I117
S'T'
ttp16
a((I93
S'S'
t(I97
S'M'
ttp17
a((I102
S'T'
t(I103
S'G'
ttp18
a((I106
S'A'
t(I154
S'T'
ttp19
a((I124
S'H'
t(I251
S'T'
ttp20
a((I124
S'R'
t(I251
S'T'
ttp21
a((I124
S'H'
t(I254
S'A'
ttp22
a((I124
S'R'
t(I254
S'A'
ttp23
a((I128
S'I'
t(I254
S'A'
ttp24
a((I128
S'I'
t(I254
S'G'
ttp25
a((I128
S'L'
t(I254
S'A'
ttp26
a((I128
S'L'
t(I254
S'G'
ttp27
a((I129
S'S'
t(I132
S'S'
ttp28
a((I129
S'T'
t(I132
S'A'
ttp29
a((I141
S'G'
t(I181
S'Q'
ttp30
a((I143
S'I'
t(I146
S'C'
ttp31
a((I143
S'I'
t(I146
S'D'
ttp32
a((I143
S'I'
t(I147
S'I'
ttp33
a((I143
S'I'
t(I147
S'V'
ttp34
a((I152
S'F'
t(I168
S'Y'
ttp35
a((I157
S'G'
t(I220
S'W'
ttp36
a((I159
S'A'
t(I163
S'V'
ttp37
a((I168
S'Y'
t(I220
S'W'
ttp38
a((I169
S'C'
t(I170
S'I'
ttp39
a((I183
S'A'
t(I210
S'F'
ttp40
a((I188
S'E'
t(I277
S'S'
ttp41
a((I190
S'Y'
t(I203
S'T'
ttp42
a((I191
S'Y'
t(I277
S'L'
ttp43
a((I191
S'H'
t(I277
S'M'
ttp44
a((I191
S'Y'
t(I288
S'T'
ttp45
a((I191
S'H'
t(I288
S'E'
ttp46
a((I192
S'I'
t(I288
S'T'
ttp47
a((I192
S'S'
t(I288
S'E'
ttp48
a((I192
S'I'
t(I289
S'L'
ttp49
a((I193
S'M'
t(I288
S'T'
ttp50
a((I199
S'K'
t(I288
S'A'
ttp51
a((I199
S'K'
t(I288
S'T'
ttp52
a((I208
S'A'
t(I245
S'I'
ttp53
a((I208
S'A'
t(I245
S'L'
ttp54
a((I208
S'V'
t(I245
S'M'
ttp55
a((I208
S'A'
t(I249
S'I'
ttp56
a((I208
S'A'
t(I249
S'F'
ttp57
a((I208
S'V'
t(I249
S'C'
ttp58
a((I211
S'A'
t(I215
S'S'
ttp59
a((I211
S'A'
t(I215
S'M'
ttp60
a((I214
S'L'
t(I218
S'G'
ttp61
a((I215
S'M'
t(I242
S'C'
ttp62
a((I216
S'F'
t(I242
S'C'
ttp63
a((I218
S'I'
t(I220
S'F'
ttp64
a((I262
S'H'
t(I266
S'I'
ttp65
a.