(lp1
(I102
S'T'
tp2
a(I141
S'A'
tp3
a((I29
S'I'
t(I100
S'L'
ttp4
a((I33
S'Y'
t(I232
S'P'
ttp5
a((I33
S'Y'
t(I233
S'Y'
ttp6
a((I45
S'C'
t(I240
S'T'
ttp7
a((I45
S'C'
t(I244
S'L'
ttp8
a((I48
S'F'
t(I50
S'V'
ttp9
a((I48
S'I'
t(I51
S'F'
ttp10
a((I48
S'I'
t(I52
S'L'
ttp11
a((I53
S'S'
t(I81
S'V'
ttp12
a((I54
S'A'
t(I81
S'V'
ttp13
a((I79
S'I'
t(I117
S'T'
ttp14
a((I102
S'T'
t(I103
S'G'
ttp15
a((I102
S'G'
t(I159
S'A'
ttp16
a((I106
S'A'
t(I154
S'M'
ttp17
a((I106
S'A'
t(I154
S'T'
ttp18
a((I106
S'A'
t(I157
S'A'
ttp19
a((I106
S'A'
t(I157
S'G'
ttp20
a((I124
S'H'
t(I251
S'T'
ttp21
a((I124
S'R'
t(I251
S'T'
ttp22
a((I124
S'H'
t(I254
S'A'
ttp23
a((I124
S'R'
t(I254
S'A'
ttp24
a((I128
S'I'
t(I254
S'A'
ttp25
a((I128
S'I'
t(I254
S'G'
ttp26
a((I128
S'L'
t(I254
S'A'
ttp27
a((I128
S'L'
t(I254
S'G'
ttp28
a((I129
S'S'
t(I132
S'S'
ttp29
a((I129
S'T'
t(I192
S'T'
ttp30
a((I137
S'K'
t(I141
S'A'
ttp31
a((I141
S'G'
t(I181
S'Q'
ttp32
a((I143
S'I'
t(I146
S'C'
ttp33
a((I143
S'I'
t(I146
S'D'
ttp34
a((I143
S'I'
t(I147
S'I'
ttp35
a((I143
S'I'
t(I147
S'V'
ttp36
a((I149
S'M'
t(I171
S'S'
ttp37
a((I157
S'A'
t(I220
S'W'
ttp38
a((I173
S'I'
t(I177
S'Y'
ttp39
a((I190
S'Y'
t(I203
S'T'
ttp40
a((I192
S'S'
t(I288
S'E'
ttp41
a((I199
S'K'
t(I288
S'A'
ttp42
a((I199
S'K'
t(I288
S'T'
ttp43
a((I208
S'A'
t(I245
S'I'
ttp44
a((I208
S'A'
t(I245
S'L'
ttp45
a((I208
S'V'
t(I245
S'M'
ttp46
a((I208
S'A'
t(I249
S'I'
ttp47
a((I208
S'A'
t(I249
S'F'
ttp48
a((I208
S'V'
t(I249
S'C'
ttp49
a((I211
S'A'
t(I215
S'M'
ttp50
a((I214
S'G'
t(I218
S'I'
ttp51
a((I215
S'M'
t(I242
S'C'
ttp52
a((I252
S'L'
t(I256
S'H'
ttp53
a((I254
S'G'
t(I256
S'H'
ttp54
a.