(lp1
(I0
S'G'
tp2
a(I1
S'F'
tp3
a(I2
S'D'
tp4
a(I161
S'G'
tp5
a(I169
S'C'
tp6
a(I169
S'I'
tp7
a(I218
S'G'
tp8
a(I222
S'L'
tp9
a((I0
S'E'
t(I1
S'Y'
ttp10
a((I0
S'G'
t(I1
S'F'
ttp11
a((I0
S'G'
t(I2
S'D'
ttp12
a((I0
S'G'
t(I5
S'A'
ttp13
a((I3
S'A'
t(I99
S'F'
ttp14
a((I4
S'L'
t(I5
S'A'
ttp15
a((I28
S'A'
t(I105
S'I'
ttp16
a((I28
S'S'
t(I105
S'I'
ttp17
a((I29
S'W'
t(I99
S'F'
ttp18
a((I29
S'I'
t(I101
S'Y'
ttp19
a((I29
S'I'
t(I105
S'I'
ttp20
a((I33
S'R'
t(I232
S'P'
ttp21
a((I33
S'Y'
t(I233
S'A'
ttp22
a((I35
S'A'
t(I233
S'Y'
ttp23
a((I39
S'Q'
t(I233
S'Y'
ttp24
a((I41
S'T'
t(I237
S'V'
ttp25
a((I45
S'L'
t(I49
S'A'
ttp26
a((I45
S'F'
t(I237
S'V'
ttp27
a((I49
S'A'
t(I50
S'F'
ttp28
a((I49
S'A'
t(I50
S'V'
ttp29
a((I53
S'A'
t(I77
S'A'
ttp30
a((I79
S'I'
t(I117
S'T'
ttp31
a((I106
S'A'
t(I154
S'M'
ttp32
a((I106
S'A'
t(I157
S'A'
ttp33
a((I106
S'A'
t(I157
S'G'
ttp34
a((I124
S'H'
t(I251
S'G'
ttp35
a((I124
S'H'
t(I254
S'G'
ttp36
a((I129
S'T'
t(I192
S'T'
ttp37
a((I141
S'G'
t(I143
S'I'
ttp38
a((I141
S'A'
t(I181
S'N'
ttp39
a((I143
S'L'
t(I146
S'D'
ttp40
a((I146
S'C'
t(I178
S'M'
ttp41
a((I149
S'M'
t(I178
S'M'
ttp42
a((I156
S'A'
t(I167
S'L'
ttp43
a((I159
S'A'
t(I163
S'V'
ttp44
a((I159
S'A'
t(I167
S'L'
ttp45
a((I159
S'A'
t(I167
S'F'
ttp46
a((I173
S'V'
t(I176
S'G'
ttp47
a((I185
S'I'
t(I189
S'S'
ttp48
a((I199
S'K'
t(I288
S'A'
ttp49
a((I199
S'R'
t(I288
S'A'
ttp50
a((I199
S'R'
t(I288
S'E'
ttp51
a((I209
S'F'
t(I214
S'G'
ttp52
a((I211
S'A'
t(I214
S'G'
ttp53
a((I211
S'V'
t(I214
S'G'
ttp54
a((I214
S'L'
t(I215
S'S'
ttp55
a((I218
S'I'
t(I220
S'F'
ttp56
a((I252
S'F'
t(I256
S'F'
ttp57
a.