(lp1
(I102
S'T'
tp2
a(I169
S'C'
tp3
a(I256
S'H'
tp4
a((I29
S'I'
t(I100
S'L'
ttp5
a((I29
S'W'
t(I100
S'L'
ttp6
a((I31
S'H'
t(I105
S'H'
ttp7
a((I33
S'Y'
t(I232
S'P'
ttp8
a((I33
S'Y'
t(I233
S'Y'
ttp9
a((I45
S'C'
t(I240
S'S'
ttp10
a((I45
S'C'
t(I240
S'T'
ttp11
a((I45
S'C'
t(I244
S'I'
ttp12
a((I45
S'C'
t(I244
S'L'
ttp13
a((I48
S'I'
t(I50
S'V'
ttp14
a((I48
S'F'
t(I50
S'V'
ttp15
a((I48
S'I'
t(I51
S'F'
ttp16
a((I48
S'F'
t(I52
S'L'
ttp17
a((I52
S'I'
t(I244
S'L'
ttp18
a((I52
S'I'
t(I248
S'N'
ttp19
a((I53
S'S'
t(I81
S'V'
ttp20
a((I53
S'A'
t(I248
S'N'
ttp21
a((I54
S'A'
t(I81
S'V'
ttp22
a((I56
S'L'
t(I248
S'N'
ttp23
a((I79
S'I'
t(I117
S'T'
ttp24
a((I79
S'V'
t(I117
S'T'
ttp25
a((I93
S'S'
t(I97
S'M'
ttp26
a((I101
S'S'
t(I102
S'T'
ttp27
a((I104
S'N'
t(I159
S'A'
ttp28
a((I106
S'A'
t(I154
S'M'
ttp29
a((I106
S'A'
t(I154
S'T'
ttp30
a((I106
S'T'
t(I154
S'T'
ttp31
a((I106
S'A'
t(I157
S'A'
ttp32
a((I106
S'A'
t(I157
S'G'
ttp33
a((I124
S'H'
t(I251
S'T'
ttp34
a((I124
S'R'
t(I251
S'T'
ttp35
a((I124
S'R'
t(I254
S'A'
ttp36
a((I128
S'I'
t(I254
S'A'
ttp37
a((I128
S'I'
t(I254
S'G'
ttp38
a((I128
S'L'
t(I254
S'A'
ttp39
a((I128
S'L'
t(I254
S'G'
ttp40
a((I129
S'S'
t(I132
S'S'
ttp41
a((I129
S'T'
t(I192
S'T'
ttp42
a((I141
S'A'
t(I177
S'Q'
ttp43
a((I143
S'I'
t(I146
S'C'
ttp44
a((I143
S'I'
t(I146
S'D'
ttp45
a((I143
S'I'
t(I147
S'I'
ttp46
a((I143
S'I'
t(I147
S'V'
ttp47
a((I143
S'L'
t(I147
S'I'
ttp48
a((I152
S'M'
t(I170
S'I'
ttp49
a((I156
S'A'
t(I159
S'A'
ttp50
a((I157
S'A'
t(I220
S'W'
ttp51
a((I158
S'L'
t(I159
S'A'
ttp52
a((I172
S'C'
t(I176
S'T'
ttp53
a((I173
S'I'
t(I177
S'Y'
ttp54
a((I179
S'F'
t(I214
S'G'
ttp55
a((I187
S'I'
t(I190
S'Y'
ttp56
a((I190
S'Y'
t(I203
S'K'
ttp57
a((I190
S'Y'
t(I203
S'T'
ttp58
a((I191
S'Y'
t(I277
S'L'
ttp59
a((I191
S'Y'
t(I288
S'T'
ttp60
a((I192
S'I'
t(I288
S'T'
ttp61
a((I192
S'S'
t(I288
S'E'
ttp62
a((I192
S'I'
t(I289
S'L'
ttp63
a((I192
S'I'
t(I289
S'F'
ttp64
a((I193
S'M'
t(I288
S'T'
ttp65
a((I193
S'M'
t(I289
S'F'
ttp66
a((I197
S'R'
t(I256
S'F'
ttp67
a((I199
S'K'
t(I288
S'A'
ttp68
a((I199
S'K'
t(I288
S'T'
ttp69
a((I208
S'A'
t(I245
S'I'
ttp70
a((I208
S'A'
t(I245
S'L'
ttp71
a((I208
S'L'
t(I245
S'I'
ttp72
a((I208
S'V'
t(I245
S'M'
ttp73
a((I208
S'V'
t(I245
S'L'
ttp74
a((I208
S'A'
t(I249
S'I'
ttp75
a((I208
S'A'
t(I249
S'F'
ttp76
a((I208
S'L'
t(I249
S'F'
ttp77
a((I208
S'V'
t(I249
S'I'
ttp78
a((I208
S'V'
t(I249
S'C'
ttp79
a((I214
S'L'
t(I218
S'I'
ttp80
a((I214
S'G'
t(I218
S'I'
ttp81
a((I214
S'G'
t(I218
S'G'
ttp82
a((I215
S'S'
t(I242
S'I'
ttp83
a((I215
S'S'
t(I242
S'C'
ttp84
a((I215
S'M'
t(I242
S'C'
ttp85
a((I216
S'Y'
t(I220
S'F'
ttp86
a((I216
S'Y'
t(I242
S'I'
ttp87
a((I216
S'F'
t(I242
S'C'
ttp88
a((I216
S'F'
t(I246
S'A'
ttp89
a((I252
S'L'
t(I256
S'H'
ttp90
a((I253
S'L'
t(I256
S'H'
ttp91
a((I255
S'H'
t(I256
S'H'
ttp92
a.